SF:/home/dimitris/my_repos/temp4/ultraplonk_verifier/src/bin/noir_cli/cli.rs
FN:31,_RNCNvXs0_NtCsiZlQ41RcJT8_8noir_cli3cliNtB7_3CliNtNtCs8S9MtC4OgOI_12clap_builder6derive14FromArgMatches20from_arg_matches_mut0B9_
FN:31,_RNCNvXs0_NtCsiZlQ41RcJT8_8noir_cli3cliNtB7_3CliNtNtCs8S9MtC4OgOI_12clap_builder6derive14FromArgMatches27update_from_arg_matches_mut0B9_
FN:40,_RNCNvXs3_NtCsiZlQ41RcJT8_8noir_cli3cliNtB7_8CommandsNtNtCs8S9MtC4OgOI_12clap_builder6derive14FromArgMatches20from_arg_matches_mut0B9_
FN:51,_RNCNvXs3_NtCsiZlQ41RcJT8_8noir_cli3cliNtB7_8CommandsNtNtCs8S9MtC4OgOI_12clap_builder6derive14FromArgMatches20from_arg_matches_muts_0B9_
FN:55,_RNCNvXs3_NtCsiZlQ41RcJT8_8noir_cli3cliNtB7_8CommandsNtNtCs8S9MtC4OgOI_12clap_builder6derive14FromArgMatches20from_arg_matches_muts0_0B9_
FN:69,_RNCNvXs3_NtCsiZlQ41RcJT8_8noir_cli3cliNtB7_8CommandsNtNtCs8S9MtC4OgOI_12clap_builder6derive14FromArgMatches20from_arg_matches_muts1_0B9_
FN:73,_RNCNvXs3_NtCsiZlQ41RcJT8_8noir_cli3cliNtB7_8CommandsNtNtCs8S9MtC4OgOI_12clap_builder6derive14FromArgMatches20from_arg_matches_muts2_0B9_
FN:77,_RNCNvXs3_NtCsiZlQ41RcJT8_8noir_cli3cliNtB7_8CommandsNtNtCs8S9MtC4OgOI_12clap_builder6derive14FromArgMatches20from_arg_matches_muts3_0B9_
FN:83,_RNCNvXs3_NtCsiZlQ41RcJT8_8noir_cli3cliNtB7_8CommandsNtNtCs8S9MtC4OgOI_12clap_builder6derive14FromArgMatches20from_arg_matches_muts4_0B9_
FN:40,_RNCNvXs3_NtCsiZlQ41RcJT8_8noir_cli3cliNtB7_8CommandsNtNtCs8S9MtC4OgOI_12clap_builder6derive14FromArgMatches27update_from_arg_matches_mut0B9_
FN:51,_RNCNvXs3_NtCsiZlQ41RcJT8_8noir_cli3cliNtB7_8CommandsNtNtCs8S9MtC4OgOI_12clap_builder6derive14FromArgMatches27update_from_arg_matches_muts_0B9_
FN:55,_RNCNvXs3_NtCsiZlQ41RcJT8_8noir_cli3cliNtB7_8CommandsNtNtCs8S9MtC4OgOI_12clap_builder6derive14FromArgMatches27update_from_arg_matches_muts0_0B9_
FN:69,_RNCNvXs3_NtCsiZlQ41RcJT8_8noir_cli3cliNtB7_8CommandsNtNtCs8S9MtC4OgOI_12clap_builder6derive14FromArgMatches27update_from_arg_matches_muts1_0B9_
FN:73,_RNCNvXs3_NtCsiZlQ41RcJT8_8noir_cli3cliNtB7_8CommandsNtNtCs8S9MtC4OgOI_12clap_builder6derive14FromArgMatches27update_from_arg_matches_muts2_0B9_
FN:77,_RNCNvXs3_NtCsiZlQ41RcJT8_8noir_cli3cliNtB7_8CommandsNtNtCs8S9MtC4OgOI_12clap_builder6derive14FromArgMatches27update_from_arg_matches_muts3_0B9_
FN:83,_RNCNvXs3_NtCsiZlQ41RcJT8_8noir_cli3cliNtB7_8CommandsNtNtCs8S9MtC4OgOI_12clap_builder6derive14FromArgMatches27update_from_arg_matches_muts4_0B9_
FN:31,_RNCNvXs0_NtCska6KjoqsFU2_8noir_cli3cliNtB7_3CliNtNtCs8S9MtC4OgOI_12clap_builder6derive14FromArgMatches27update_from_arg_matches_mut0B9_
FN:40,_RNCNvXs3_NtCska6KjoqsFU2_8noir_cli3cliNtB7_8CommandsNtNtCs8S9MtC4OgOI_12clap_builder6derive14FromArgMatches27update_from_arg_matches_mut0B9_
FN:51,_RNCNvXs3_NtCska6KjoqsFU2_8noir_cli3cliNtB7_8CommandsNtNtCs8S9MtC4OgOI_12clap_builder6derive14FromArgMatches27update_from_arg_matches_muts_0B9_
FN:55,_RNCNvXs3_NtCska6KjoqsFU2_8noir_cli3cliNtB7_8CommandsNtNtCs8S9MtC4OgOI_12clap_builder6derive14FromArgMatches27update_from_arg_matches_muts0_0B9_
FN:69,_RNCNvXs3_NtCska6KjoqsFU2_8noir_cli3cliNtB7_8CommandsNtNtCs8S9MtC4OgOI_12clap_builder6derive14FromArgMatches27update_from_arg_matches_muts1_0B9_
FN:73,_RNCNvXs3_NtCska6KjoqsFU2_8noir_cli3cliNtB7_8CommandsNtNtCs8S9MtC4OgOI_12clap_builder6derive14FromArgMatches27update_from_arg_matches_muts2_0B9_
FN:77,_RNCNvXs3_NtCska6KjoqsFU2_8noir_cli3cliNtB7_8CommandsNtNtCs8S9MtC4OgOI_12clap_builder6derive14FromArgMatches27update_from_arg_matches_muts3_0B9_
FN:83,_RNCNvXs3_NtCska6KjoqsFU2_8noir_cli3cliNtB7_8CommandsNtNtCs8S9MtC4OgOI_12clap_builder6derive14FromArgMatches27update_from_arg_matches_muts4_0B9_
FN:31,_RNCNvXs0_NtCska6KjoqsFU2_8noir_cli3cliNtB7_3CliNtNtCs8S9MtC4OgOI_12clap_builder6derive14FromArgMatches20from_arg_matches_mut0B9_
FN:40,_RNCNvXs3_NtCska6KjoqsFU2_8noir_cli3cliNtB7_8CommandsNtNtCs8S9MtC4OgOI_12clap_builder6derive14FromArgMatches20from_arg_matches_mut0B9_
FN:51,_RNCNvXs3_NtCska6KjoqsFU2_8noir_cli3cliNtB7_8CommandsNtNtCs8S9MtC4OgOI_12clap_builder6derive14FromArgMatches20from_arg_matches_muts_0B9_
FN:55,_RNCNvXs3_NtCska6KjoqsFU2_8noir_cli3cliNtB7_8CommandsNtNtCs8S9MtC4OgOI_12clap_builder6derive14FromArgMatches20from_arg_matches_muts0_0B9_
FN:69,_RNCNvXs3_NtCska6KjoqsFU2_8noir_cli3cliNtB7_8CommandsNtNtCs8S9MtC4OgOI_12clap_builder6derive14FromArgMatches20from_arg_matches_muts1_0B9_
FN:73,_RNCNvXs3_NtCska6KjoqsFU2_8noir_cli3cliNtB7_8CommandsNtNtCs8S9MtC4OgOI_12clap_builder6derive14FromArgMatches20from_arg_matches_muts2_0B9_
FN:77,_RNCNvXs3_NtCska6KjoqsFU2_8noir_cli3cliNtB7_8CommandsNtNtCs8S9MtC4OgOI_12clap_builder6derive14FromArgMatches20from_arg_matches_muts3_0B9_
FN:83,_RNCNvXs3_NtCska6KjoqsFU2_8noir_cli3cliNtB7_8CommandsNtNtCs8S9MtC4OgOI_12clap_builder6derive14FromArgMatches20from_arg_matches_muts4_0B9_
FNDA:0,_RNCNvXs0_NtCsiZlQ41RcJT8_8noir_cli3cliNtB7_3CliNtNtCs8S9MtC4OgOI_12clap_builder6derive14FromArgMatches20from_arg_matches_mut0B9_
FNDA:0,_RNCNvXs0_NtCsiZlQ41RcJT8_8noir_cli3cliNtB7_3CliNtNtCs8S9MtC4OgOI_12clap_builder6derive14FromArgMatches27update_from_arg_matches_mut0B9_
FNDA:0,_RNCNvXs3_NtCsiZlQ41RcJT8_8noir_cli3cliNtB7_8CommandsNtNtCs8S9MtC4OgOI_12clap_builder6derive14FromArgMatches20from_arg_matches_mut0B9_
FNDA:0,_RNCNvXs3_NtCsiZlQ41RcJT8_8noir_cli3cliNtB7_8CommandsNtNtCs8S9MtC4OgOI_12clap_builder6derive14FromArgMatches20from_arg_matches_muts_0B9_
FNDA:0,_RNCNvXs3_NtCsiZlQ41RcJT8_8noir_cli3cliNtB7_8CommandsNtNtCs8S9MtC4OgOI_12clap_builder6derive14FromArgMatches20from_arg_matches_muts0_0B9_
FNDA:0,_RNCNvXs3_NtCsiZlQ41RcJT8_8noir_cli3cliNtB7_8CommandsNtNtCs8S9MtC4OgOI_12clap_builder6derive14FromArgMatches20from_arg_matches_muts1_0B9_
FNDA:0,_RNCNvXs3_NtCsiZlQ41RcJT8_8noir_cli3cliNtB7_8CommandsNtNtCs8S9MtC4OgOI_12clap_builder6derive14FromArgMatches20from_arg_matches_muts2_0B9_
FNDA:0,_RNCNvXs3_NtCsiZlQ41RcJT8_8noir_cli3cliNtB7_8CommandsNtNtCs8S9MtC4OgOI_12clap_builder6derive14FromArgMatches20from_arg_matches_muts3_0B9_
FNDA:0,_RNCNvXs3_NtCsiZlQ41RcJT8_8noir_cli3cliNtB7_8CommandsNtNtCs8S9MtC4OgOI_12clap_builder6derive14FromArgMatches20from_arg_matches_muts4_0B9_
FNDA:0,_RNCNvXs3_NtCsiZlQ41RcJT8_8noir_cli3cliNtB7_8CommandsNtNtCs8S9MtC4OgOI_12clap_builder6derive14FromArgMatches27update_from_arg_matches_mut0B9_
FNDA:0,_RNCNvXs3_NtCsiZlQ41RcJT8_8noir_cli3cliNtB7_8CommandsNtNtCs8S9MtC4OgOI_12clap_builder6derive14FromArgMatches27update_from_arg_matches_muts_0B9_
FNDA:0,_RNCNvXs3_NtCsiZlQ41RcJT8_8noir_cli3cliNtB7_8CommandsNtNtCs8S9MtC4OgOI_12clap_builder6derive14FromArgMatches27update_from_arg_matches_muts0_0B9_
FNDA:0,_RNCNvXs3_NtCsiZlQ41RcJT8_8noir_cli3cliNtB7_8CommandsNtNtCs8S9MtC4OgOI_12clap_builder6derive14FromArgMatches27update_from_arg_matches_muts1_0B9_
FNDA:0,_RNCNvXs3_NtCsiZlQ41RcJT8_8noir_cli3cliNtB7_8CommandsNtNtCs8S9MtC4OgOI_12clap_builder6derive14FromArgMatches27update_from_arg_matches_muts2_0B9_
FNDA:0,_RNCNvXs3_NtCsiZlQ41RcJT8_8noir_cli3cliNtB7_8CommandsNtNtCs8S9MtC4OgOI_12clap_builder6derive14FromArgMatches27update_from_arg_matches_muts3_0B9_
FNDA:0,_RNCNvXs3_NtCsiZlQ41RcJT8_8noir_cli3cliNtB7_8CommandsNtNtCs8S9MtC4OgOI_12clap_builder6derive14FromArgMatches27update_from_arg_matches_muts4_0B9_
FNDA:0,_RNCNvXs0_NtCska6KjoqsFU2_8noir_cli3cliNtB7_3CliNtNtCs8S9MtC4OgOI_12clap_builder6derive14FromArgMatches27update_from_arg_matches_mut0B9_
FNDA:0,_RNCNvXs3_NtCska6KjoqsFU2_8noir_cli3cliNtB7_8CommandsNtNtCs8S9MtC4OgOI_12clap_builder6derive14FromArgMatches27update_from_arg_matches_mut0B9_
FNDA:0,_RNCNvXs3_NtCska6KjoqsFU2_8noir_cli3cliNtB7_8CommandsNtNtCs8S9MtC4OgOI_12clap_builder6derive14FromArgMatches27update_from_arg_matches_muts_0B9_
FNDA:0,_RNCNvXs3_NtCska6KjoqsFU2_8noir_cli3cliNtB7_8CommandsNtNtCs8S9MtC4OgOI_12clap_builder6derive14FromArgMatches27update_from_arg_matches_muts0_0B9_
FNDA:0,_RNCNvXs3_NtCska6KjoqsFU2_8noir_cli3cliNtB7_8CommandsNtNtCs8S9MtC4OgOI_12clap_builder6derive14FromArgMatches27update_from_arg_matches_muts1_0B9_
FNDA:0,_RNCNvXs3_NtCska6KjoqsFU2_8noir_cli3cliNtB7_8CommandsNtNtCs8S9MtC4OgOI_12clap_builder6derive14FromArgMatches27update_from_arg_matches_muts2_0B9_
FNDA:0,_RNCNvXs3_NtCska6KjoqsFU2_8noir_cli3cliNtB7_8CommandsNtNtCs8S9MtC4OgOI_12clap_builder6derive14FromArgMatches27update_from_arg_matches_muts3_0B9_
FNDA:0,_RNCNvXs3_NtCska6KjoqsFU2_8noir_cli3cliNtB7_8CommandsNtNtCs8S9MtC4OgOI_12clap_builder6derive14FromArgMatches27update_from_arg_matches_muts4_0B9_
FNDA:0,_RNCNvXs0_NtCska6KjoqsFU2_8noir_cli3cliNtB7_3CliNtNtCs8S9MtC4OgOI_12clap_builder6derive14FromArgMatches20from_arg_matches_mut0B9_
FNDA:0,_RNCNvXs3_NtCska6KjoqsFU2_8noir_cli3cliNtB7_8CommandsNtNtCs8S9MtC4OgOI_12clap_builder6derive14FromArgMatches20from_arg_matches_mut0B9_
FNDA:0,_RNCNvXs3_NtCska6KjoqsFU2_8noir_cli3cliNtB7_8CommandsNtNtCs8S9MtC4OgOI_12clap_builder6derive14FromArgMatches20from_arg_matches_muts_0B9_
FNDA:0,_RNCNvXs3_NtCska6KjoqsFU2_8noir_cli3cliNtB7_8CommandsNtNtCs8S9MtC4OgOI_12clap_builder6derive14FromArgMatches20from_arg_matches_muts0_0B9_
FNDA:0,_RNCNvXs3_NtCska6KjoqsFU2_8noir_cli3cliNtB7_8CommandsNtNtCs8S9MtC4OgOI_12clap_builder6derive14FromArgMatches20from_arg_matches_muts1_0B9_
FNDA:0,_RNCNvXs3_NtCska6KjoqsFU2_8noir_cli3cliNtB7_8CommandsNtNtCs8S9MtC4OgOI_12clap_builder6derive14FromArgMatches20from_arg_matches_muts2_0B9_
FNDA:0,_RNCNvXs3_NtCska6KjoqsFU2_8noir_cli3cliNtB7_8CommandsNtNtCs8S9MtC4OgOI_12clap_builder6derive14FromArgMatches20from_arg_matches_muts3_0B9_
FNDA:0,_RNCNvXs3_NtCska6KjoqsFU2_8noir_cli3cliNtB7_8CommandsNtNtCs8S9MtC4OgOI_12clap_builder6derive14FromArgMatches20from_arg_matches_muts4_0B9_
FNF:8
FNH:0
DA:31,0
DA:40,0
DA:51,0
DA:55,0
DA:69,0
DA:73,0
DA:77,0
DA:83,0
BRF:0
BRH:0
LF:8
LH:0
end_of_record
SF:/home/dimitris/my_repos/temp4/ultraplonk_verifier/src/bin/noir_cli/hexdump.rs
FN:21,_RNvNtCsiZlQ41RcJT8_8noir_cli7hexdump7hexdump
FN:23,_RNCNvNtCsiZlQ41RcJT8_8noir_cli7hexdump7hexdump0B5_
FN:27,_RNCNvNtCsiZlQ41RcJT8_8noir_cli7hexdump7hexdumps_0B5_
FN:23,_RNCNvNtCska6KjoqsFU2_8noir_cli7hexdump7hexdump0B5_
FN:27,_RNCNvNtCska6KjoqsFU2_8noir_cli7hexdump7hexdumps_0B5_
FN:21,_RNvNtCska6KjoqsFU2_8noir_cli7hexdump7hexdump
FNDA:0,_RNvNtCsiZlQ41RcJT8_8noir_cli7hexdump7hexdump
FNDA:0,_RNCNvNtCsiZlQ41RcJT8_8noir_cli7hexdump7hexdump0B5_
FNDA:0,_RNCNvNtCsiZlQ41RcJT8_8noir_cli7hexdump7hexdumps_0B5_
FNDA:0,_RNCNvNtCska6KjoqsFU2_8noir_cli7hexdump7hexdump0B5_
FNDA:0,_RNCNvNtCska6KjoqsFU2_8noir_cli7hexdump7hexdumps_0B5_
FNDA:1,_RNvNtCska6KjoqsFU2_8noir_cli7hexdump7hexdump
FNF:3
FNH:1
DA:21,1
DA:22,1
DA:23,1
DA:25,1
DA:26,1
DA:27,1
DA:29,1
DA:30,1
BRF:0
BRH:0
LF:10
LH:8
end_of_record
SF:/home/dimitris/my_repos/temp4/ultraplonk_verifier/src/bin/noir_cli/main.rs
FN:27,_RNvCsiZlQ41RcJT8_8noir_cli4main
FN:27,_RNvCska6KjoqsFU2_8noir_cli4main
FNDA:0,_RNvCsiZlQ41RcJT8_8noir_cli4main
FNDA:34,_RNvCska6KjoqsFU2_8noir_cli4main
FNF:1
FNH:1
DA:27,34
DA:28,34
DA:30,34
DA:31,0
DA:33,34
DA:35,34
DA:36,34
DA:37,34
DA:38,11
DA:39,1
DA:41,11
DA:42,11
DA:43,11
DA:44,11
DA:45,11
DA:46,11
DA:48,11
DA:51,34
DA:52,34
BRF:0
BRH:0
LF:19
LH:18
end_of_record
SF:/home/dimitris/my_repos/temp4/ultraplonk_verifier/src/bin/noir_cli/proof_parser.rs
FN:21,_RNvNtCsiZlQ41RcJT8_8noir_cli12proof_parser16parse_proof_data
FN:30,_RNCNvNtCsiZlQ41RcJT8_8noir_cli12proof_parser16parse_proof_data0B5_
FN:48,_RNCNvNtCsiZlQ41RcJT8_8noir_cli12proof_parser16parse_proof_datas_0B5_
FN:52,_RNCNvNtCsiZlQ41RcJT8_8noir_cli12proof_parser16parse_proof_datas0_0B5_
FN:56,_RNCNvNtCsiZlQ41RcJT8_8noir_cli12proof_parser16parse_proof_datas1_0B5_
FN:61,_RNCNvNtCsiZlQ41RcJT8_8noir_cli12proof_parser16parse_proof_datas2_0B5_
FN:65,_RNCNvNtCsiZlQ41RcJT8_8noir_cli12proof_parser16parse_proof_datas3_0B5_
FN:73,_RNCNvNtCsiZlQ41RcJT8_8noir_cli12proof_parser16parse_proof_datas4_0B5_
FN:30,_RNCNvNtCska6KjoqsFU2_8noir_cli12proof_parser16parse_proof_data0B5_
FN:48,_RNCNvNtCska6KjoqsFU2_8noir_cli12proof_parser16parse_proof_datas_0B5_
FN:52,_RNCNvNtCska6KjoqsFU2_8noir_cli12proof_parser16parse_proof_datas0_0B5_
FN:56,_RNCNvNtCska6KjoqsFU2_8noir_cli12proof_parser16parse_proof_datas1_0B5_
FN:61,_RNCNvNtCska6KjoqsFU2_8noir_cli12proof_parser16parse_proof_datas2_0B5_
FN:65,_RNCNvNtCska6KjoqsFU2_8noir_cli12proof_parser16parse_proof_datas3_0B5_
FN:73,_RNCNvNtCska6KjoqsFU2_8noir_cli12proof_parser16parse_proof_datas4_0B5_
FN:21,_RNvNtCska6KjoqsFU2_8noir_cli12proof_parser16parse_proof_data
FNDA:0,_RNvNtCsiZlQ41RcJT8_8noir_cli12proof_parser16parse_proof_data
FNDA:0,_RNCNvNtCsiZlQ41RcJT8_8noir_cli12proof_parser16parse_proof_data0B5_
FNDA:0,_RNCNvNtCsiZlQ41RcJT8_8noir_cli12proof_parser16parse_proof_datas_0B5_
FNDA:0,_RNCNvNtCsiZlQ41RcJT8_8noir_cli12proof_parser16parse_proof_datas0_0B5_
FNDA:0,_RNCNvNtCsiZlQ41RcJT8_8noir_cli12proof_parser16parse_proof_datas1_0B5_
FNDA:0,_RNCNvNtCsiZlQ41RcJT8_8noir_cli12proof_parser16parse_proof_datas2_0B5_
FNDA:0,_RNCNvNtCsiZlQ41RcJT8_8noir_cli12proof_parser16parse_proof_datas3_0B5_
FNDA:0,_RNCNvNtCsiZlQ41RcJT8_8noir_cli12proof_parser16parse_proof_datas4_0B5_
FNDA:0,_RNCNvNtCska6KjoqsFU2_8noir_cli12proof_parser16parse_proof_data0B5_
FNDA:0,_RNCNvNtCska6KjoqsFU2_8noir_cli12proof_parser16parse_proof_datas_0B5_
FNDA:11,_RNCNvNtCska6KjoqsFU2_8noir_cli12proof_parser16parse_proof_datas0_0B5_
FNDA:0,_RNCNvNtCska6KjoqsFU2_8noir_cli12proof_parser16parse_proof_datas1_0B5_
FNDA:0,_RNCNvNtCska6KjoqsFU2_8noir_cli12proof_parser16parse_proof_datas2_0B5_
FNDA:11,_RNCNvNtCska6KjoqsFU2_8noir_cli12proof_parser16parse_proof_datas3_0B5_
FNDA:0,_RNCNvNtCska6KjoqsFU2_8noir_cli12proof_parser16parse_proof_datas4_0B5_
FNDA:11,_RNvNtCska6KjoqsFU2_8noir_cli12proof_parser16parse_proof_data
FNF:8
FNH:3
DA:21,11
DA:22,11
DA:23,11
DA:24,11
DA:25,11
DA:26,11
DA:27,11
DA:29,11
DA:30,11
DA:32,11
DA:33,11
DA:34,0
DA:35,0
DA:36,0
DA:37,0
DA:38,0
DA:39,11
DA:41,11
DA:42,11
DA:43,11
DA:44,11
DA:46,11
DA:47,11
DA:48,11
DA:50,11
DA:51,11
DA:52,11
DA:54,11
DA:55,11
DA:56,11
DA:59,11
DA:60,11
DA:61,11
DA:63,11
DA:64,11
DA:65,11
DA:67,11
DA:69,11
DA:71,22
DA:72,11
DA:73,11
DA:76,11
DA:77,11
BRF:0
BRH:0
LF:50
LH:40
end_of_record
SF:/home/dimitris/my_repos/temp4/ultraplonk_verifier/src/bin/noir_cli/utils.rs
FN:20,_RNvNtCsiZlQ41RcJT8_8noir_cli5utils8out_file
FN:23,_RNCNvNtCsiZlQ41RcJT8_8noir_cli5utils8out_file0B5_
FN:25,_RNCNCNvNtCsiZlQ41RcJT8_8noir_cli5utils8out_file00B7_
FN:28,_RNCNvNtCsiZlQ41RcJT8_8noir_cli5utils8out_files_0B5_
FN:31,_RNCNvNtCsiZlQ41RcJT8_8noir_cli5utils8out_files0_0B5_
FN:34,_RINvNtCsiZlQ41RcJT8_8noir_cli5utils13dump_data_hexpEB4_
FN:23,_RNCNvNtCska6KjoqsFU2_8noir_cli5utils8out_file0B5_
FN:25,_RNCNCNvNtCska6KjoqsFU2_8noir_cli5utils8out_file00B7_
FN:28,_RNCNvNtCska6KjoqsFU2_8noir_cli5utils8out_files_0B5_
FN:31,_RNCNvNtCska6KjoqsFU2_8noir_cli5utils8out_files0_0B5_
FN:34,_RINvNtCska6KjoqsFU2_8noir_cli5utils13dump_data_hexQINtNtCslJayFkQuiPJ_5alloc5boxed3BoxDNtNtCs72AllY15lil_3std2io5WriteEL_EEB4_
FN:20,_RNvNtCska6KjoqsFU2_8noir_cli5utils8out_file
FNDA:0,_RNvNtCsiZlQ41RcJT8_8noir_cli5utils8out_file
FNDA:0,_RNCNvNtCsiZlQ41RcJT8_8noir_cli5utils8out_file0B5_
FNDA:0,_RNCNCNvNtCsiZlQ41RcJT8_8noir_cli5utils8out_file00B7_
FNDA:0,_RNCNvNtCsiZlQ41RcJT8_8noir_cli5utils8out_files_0B5_
FNDA:0,_RNCNvNtCsiZlQ41RcJT8_8noir_cli5utils8out_files0_0B5_
FNDA:0,_RINvNtCsiZlQ41RcJT8_8noir_cli5utils13dump_data_hexpEB4_
FNDA:66,_RNCNvNtCska6KjoqsFU2_8noir_cli5utils8out_file0B5_
FNDA:0,_RNCNCNvNtCska6KjoqsFU2_8noir_cli5utils8out_file00B7_
FNDA:66,_RNCNvNtCska6KjoqsFU2_8noir_cli5utils8out_files_0B5_
FNDA:1,_RNCNvNtCska6KjoqsFU2_8noir_cli5utils8out_files0_0B5_
FNDA:34,_RINvNtCska6KjoqsFU2_8noir_cli5utils13dump_data_hexQINtNtCslJayFkQuiPJ_5alloc5boxed3BoxDNtNtCs72AllY15lil_3std2io5WriteEL_EEB4_
FNDA:67,_RNvNtCska6KjoqsFU2_8noir_cli5utils8out_file
FNF:6
FNH:5
DA:20,67
DA:22,67
DA:23,67
DA:24,66
DA:25,66
DA:26,67
DA:27,67
DA:28,67
DA:29,67
DA:30,67
DA:31,67
DA:32,67
DA:34,34
DA:35,34
DA:36,34
DA:37,34
DA:38,34
DA:39,34
BRF:0
BRH:0
LF:23
LH:22
end_of_record
SF:/home/dimitris/my_repos/temp4/ultraplonk_verifier/src/bin/noir_cli/verifier.rs
FN:22,_RNvNtCsiZlQ41RcJT8_8noir_cli8verifier6verify
FN:25,_RNCNvNtCsiZlQ41RcJT8_8noir_cli8verifier6verify0B5_
FN:31,_RNCNvNtCsiZlQ41RcJT8_8noir_cli8verifier6verifys_0B5_
FN:35,_RNCNvNtCsiZlQ41RcJT8_8noir_cli8verifier6verifys0_0B5_
FN:49,_RNvNtCsiZlQ41RcJT8_8noir_cli8verifier21convert_to_pub_inputs
FN:56,_RNCNvNtCsiZlQ41RcJT8_8noir_cli8verifier21convert_to_pub_inputs0B5_
FN:60,_RNvNtCsiZlQ41RcJT8_8noir_cli8verifier15read_proof_file
FN:61,_RNCNvNtCsiZlQ41RcJT8_8noir_cli8verifier15read_proof_file0B5_
FN:63,_RNCNvNtCsiZlQ41RcJT8_8noir_cli8verifier15read_proof_files_0B5_
FN:22,_RNvNtCska6KjoqsFU2_8noir_cli8verifier6verify
FN:49,_RNvNtCska6KjoqsFU2_8noir_cli8verifier21convert_to_pub_inputs
FN:60,_RNvNtCska6KjoqsFU2_8noir_cli8verifier15read_proof_file
FN:25,_RNCNvNtCska6KjoqsFU2_8noir_cli8verifier6verify0B5_
FN:31,_RNCNvNtCska6KjoqsFU2_8noir_cli8verifier6verifys_0B5_
FN:35,_RNCNvNtCska6KjoqsFU2_8noir_cli8verifier6verifys0_0B5_
FN:56,_RNCNvNtCska6KjoqsFU2_8noir_cli8verifier21convert_to_pub_inputs0B5_
FN:61,_RNCNvNtCska6KjoqsFU2_8noir_cli8verifier15read_proof_file0B5_
FN:63,_RNCNvNtCska6KjoqsFU2_8noir_cli8verifier15read_proof_files_0B5_
FNDA:0,_RNvNtCsiZlQ41RcJT8_8noir_cli8verifier6verify
FNDA:0,_RNCNvNtCsiZlQ41RcJT8_8noir_cli8verifier6verify0B5_
FNDA:0,_RNCNvNtCsiZlQ41RcJT8_8noir_cli8verifier6verifys_0B5_
FNDA:0,_RNCNvNtCsiZlQ41RcJT8_8noir_cli8verifier6verifys0_0B5_
FNDA:0,_RNvNtCsiZlQ41RcJT8_8noir_cli8verifier21convert_to_pub_inputs
FNDA:0,_RNCNvNtCsiZlQ41RcJT8_8noir_cli8verifier21convert_to_pub_inputs0B5_
FNDA:0,_RNvNtCsiZlQ41RcJT8_8noir_cli8verifier15read_proof_file
FNDA:0,_RNCNvNtCsiZlQ41RcJT8_8noir_cli8verifier15read_proof_file0B5_
FNDA:0,_RNCNvNtCsiZlQ41RcJT8_8noir_cli8verifier15read_proof_files_0B5_
FNDA:11,_RNvNtCska6KjoqsFU2_8noir_cli8verifier6verify
FNDA:22,_RNvNtCska6KjoqsFU2_8noir_cli8verifier21convert_to_pub_inputs
FNDA:11,_RNvNtCska6KjoqsFU2_8noir_cli8verifier15read_proof_file
FNDA:0,_RNCNvNtCska6KjoqsFU2_8noir_cli8verifier6verify0B5_
FNDA:0,_RNCNvNtCska6KjoqsFU2_8noir_cli8verifier6verifys_0B5_
FNDA:0,_RNCNvNtCska6KjoqsFU2_8noir_cli8verifier6verifys0_0B5_
FNDA:22,_RNCNvNtCska6KjoqsFU2_8noir_cli8verifier21convert_to_pub_inputs0B5_
FNDA:0,_RNCNvNtCska6KjoqsFU2_8noir_cli8verifier15read_proof_file0B5_
FNDA:0,_RNCNvNtCska6KjoqsFU2_8noir_cli8verifier15read_proof_files_0B5_
FNF:9
FNH:4
DA:22,11
DA:23,11
DA:24,11
DA:25,11
DA:27,11
DA:28,11
DA:29,11
DA:30,11
DA:31,11
DA:33,11
DA:34,11
DA:35,11
DA:37,11
DA:39,11
DA:40,11
DA:42,11
DA:43,11
DA:45,0
DA:47,11
DA:49,22
DA:50,22
DA:51,0
DA:52,22
DA:54,22
DA:55,22
DA:56,22
DA:57,22
DA:58,22
DA:60,11
DA:61,11
DA:63,11
DA:64,0
DA:65,0
DA:66,0
DA:67,0
DA:68,0
DA:69,11
DA:70,11
BRF:0
BRH:0
LF:45
LH:32
end_of_record
SF:/home/dimitris/my_repos/temp4/ultraplonk_verifier/src/bin/noir_cli/vk_parser.rs
FN:24,_RNvNtCsiZlQ41RcJT8_8noir_cli9vk_parser22parse_verification_key
FN:26,_RNCNvNtCsiZlQ41RcJT8_8noir_cli9vk_parser22parse_verification_key0B5_
FN:29,_RNCNvNtCsiZlQ41RcJT8_8noir_cli9vk_parser22parse_verification_keys_0B5_
FN:30,_RNCNvNtCsiZlQ41RcJT8_8noir_cli9vk_parser22parse_verification_keys0_0B5_
FN:35,_RNCNvNtCsiZlQ41RcJT8_8noir_cli9vk_parser22parse_verification_keys1_0B5_
FN:39,_RNCNvNtCsiZlQ41RcJT8_8noir_cli9vk_parser22parse_verification_keys2_0B5_
FN:42,_RNCNvNtCsiZlQ41RcJT8_8noir_cli9vk_parser22parse_verification_keys3_0B5_
FN:24,_RNvNtCska6KjoqsFU2_8noir_cli9vk_parser22parse_verification_key
FN:26,_RNCNvNtCska6KjoqsFU2_8noir_cli9vk_parser22parse_verification_key0B5_
FN:29,_RNCNvNtCska6KjoqsFU2_8noir_cli9vk_parser22parse_verification_keys_0B5_
FN:30,_RNCNvNtCska6KjoqsFU2_8noir_cli9vk_parser22parse_verification_keys0_0B5_
FN:35,_RNCNvNtCska6KjoqsFU2_8noir_cli9vk_parser22parse_verification_keys1_0B5_
FN:39,_RNCNvNtCska6KjoqsFU2_8noir_cli9vk_parser22parse_verification_keys2_0B5_
FN:42,_RNCNvNtCska6KjoqsFU2_8noir_cli9vk_parser22parse_verification_keys3_0B5_
FNDA:0,_RNvNtCsiZlQ41RcJT8_8noir_cli9vk_parser22parse_verification_key
FNDA:0,_RNCNvNtCsiZlQ41RcJT8_8noir_cli9vk_parser22parse_verification_key0B5_
FNDA:0,_RNCNvNtCsiZlQ41RcJT8_8noir_cli9vk_parser22parse_verification_keys_0B5_
FNDA:0,_RNCNvNtCsiZlQ41RcJT8_8noir_cli9vk_parser22parse_verification_keys0_0B5_
FNDA:0,_RNCNvNtCsiZlQ41RcJT8_8noir_cli9vk_parser22parse_verification_keys1_0B5_
FNDA:0,_RNCNvNtCsiZlQ41RcJT8_8noir_cli9vk_parser22parse_verification_keys2_0B5_
FNDA:0,_RNCNvNtCsiZlQ41RcJT8_8noir_cli9vk_parser22parse_verification_keys3_0B5_
FNDA:11,_RNvNtCska6KjoqsFU2_8noir_cli9vk_parser22parse_verification_key
FNDA:0,_RNCNvNtCska6KjoqsFU2_8noir_cli9vk_parser22parse_verification_key0B5_
FNDA:11,_RNCNvNtCska6KjoqsFU2_8noir_cli9vk_parser22parse_verification_keys_0B5_
FNDA:0,_RNCNvNtCska6KjoqsFU2_8noir_cli9vk_parser22parse_verification_keys0_0B5_
FNDA:0,_RNCNvNtCska6KjoqsFU2_8noir_cli9vk_parser22parse_verification_keys1_0B5_
FNDA:11,_RNCNvNtCska6KjoqsFU2_8noir_cli9vk_parser22parse_verification_keys2_0B5_
FNDA:0,_RNCNvNtCska6KjoqsFU2_8noir_cli9vk_parser22parse_verification_keys3_0B5_
FNF:7
FNH:3
DA:24,11
DA:25,11
DA:26,11
DA:28,11
DA:29,11
DA:30,11
DA:32,11
DA:33,11
DA:34,11
DA:35,11
DA:37,11
DA:38,11
DA:39,11
DA:40,11
DA:41,11
DA:42,11
DA:43,11
DA:44,11
BRF:0
BRH:0
LF:24
LH:20
end_of_record
SF:/home/dimitris/my_repos/temp4/ultraplonk_verifier/src/constants.rs
FN:9,_RNvNtCsk9ngD3d3DdK_17ultraplonk_no_std9constants13root_of_unity
FN:45,_RNvNtCsk9ngD3d3DdK_17ultraplonk_no_std9constants21inverse_root_of_unity
FN:81,_RNvNtCsk9ngD3d3DdK_17ultraplonk_no_std9constants14domain_inverse
FN:9,_RNvNtCs7j5G3H6G69x_17ultraplonk_no_std9constants13root_of_unity
FN:45,_RNvNtCs7j5G3H6G69x_17ultraplonk_no_std9constants21inverse_root_of_unity
FN:81,_RNvNtCs7j5G3H6G69x_17ultraplonk_no_std9constants14domain_inverse
FN:130,_RNCNvNtNtCs7j5G3H6G69x_17ultraplonk_no_std9constants4tests_32max_log2_circuit_size_is_correct0B7_
FN:131,_RNCNvNtNtCs7j5G3H6G69x_17ultraplonk_no_std9constants4tests_32max_log2_circuit_size_is_corrects_0B7_
FN:132,_RNCNvNtNtCs7j5G3H6G69x_17ultraplonk_no_std9constants4tests_32max_log2_circuit_size_is_corrects0_0B7_
FN:123,_RNvNtNtCs7j5G3H6G69x_17ultraplonk_no_std9constants4tests_32negative_inverse_of_2_is_correct
FN:128,_RNvNtNtCs7j5G3H6G69x_17ultraplonk_no_std9constants4tests_32max_log2_circuit_size_is_correct
FN:139,_RNvNtNtCs7j5G3H6G69x_17ultraplonk_no_std9constants4tests_14roots_of_unity
FN:150,_RNvNtNtCs7j5G3H6G69x_17ultraplonk_no_std9constants4tests_22inverse_roots_of_unity
FN:164,_RNvNtNtCs7j5G3H6G69x_17ultraplonk_no_std9constants4tests_15domain_inverses
FNDA:11,_RNvNtCsk9ngD3d3DdK_17ultraplonk_no_std9constants13root_of_unity
FNDA:11,_RNvNtCsk9ngD3d3DdK_17ultraplonk_no_std9constants21inverse_root_of_unity
FNDA:11,_RNvNtCsk9ngD3d3DdK_17ultraplonk_no_std9constants14domain_inverse
FNDA:33,_RNvNtCs7j5G3H6G69x_17ultraplonk_no_std9constants13root_of_unity
FNDA:33,_RNvNtCs7j5G3H6G69x_17ultraplonk_no_std9constants21inverse_root_of_unity
FNDA:33,_RNvNtCs7j5G3H6G69x_17ultraplonk_no_std9constants14domain_inverse
FNDA:64,_RNCNvNtNtCs7j5G3H6G69x_17ultraplonk_no_std9constants4tests_32max_log2_circuit_size_is_correct0B7_
FNDA:64,_RNCNvNtNtCs7j5G3H6G69x_17ultraplonk_no_std9constants4tests_32max_log2_circuit_size_is_corrects_0B7_
FNDA:29,_RNCNvNtNtCs7j5G3H6G69x_17ultraplonk_no_std9constants4tests_32max_log2_circuit_size_is_corrects0_0B7_
FNDA:1,_RNvNtNtCs7j5G3H6G69x_17ultraplonk_no_std9constants4tests_32negative_inverse_of_2_is_correct
FNDA:1,_RNvNtNtCs7j5G3H6G69x_17ultraplonk_no_std9constants4tests_32max_log2_circuit_size_is_correct
FNDA:1,_RNvNtNtCs7j5G3H6G69x_17ultraplonk_no_std9constants4tests_14roots_of_unity
FNDA:1,_RNvNtNtCs7j5G3H6G69x_17ultraplonk_no_std9constants4tests_22inverse_roots_of_unity
FNDA:1,_RNvNtNtCs7j5G3H6G69x_17ultraplonk_no_std9constants4tests_15domain_inverses
FNF:11
FNH:11
DA:9,44
DA:10,44
DA:11,1
DA:12,1
DA:13,1
DA:14,1
DA:15,15
DA:16,2
DA:17,1
DA:18,1
DA:19,1
DA:20,1
DA:21,1
DA:22,1
DA:23,1
DA:24,1
DA:25,1
DA:26,1
DA:27,1
DA:28,1
DA:29,1
DA:30,1
DA:31,1
DA:32,1
DA:33,1
DA:34,1
DA:35,1
DA:36,1
DA:37,1
DA:38,1
DA:39,1
DA:40,0
DA:42,44
DA:45,44
DA:46,44
DA:47,1
DA:48,1
DA:49,1
DA:50,1
DA:51,15
DA:52,2
DA:53,1
DA:54,1
DA:55,1
DA:56,1
DA:57,1
DA:58,1
DA:59,1
DA:60,1
DA:61,1
DA:62,1
DA:63,1
DA:64,1
DA:65,1
DA:66,1
DA:67,1
DA:68,1
DA:69,1
DA:70,1
DA:71,1
DA:72,1
DA:73,1
DA:74,1
DA:75,1
DA:76,0
DA:78,44
DA:81,44
DA:82,44
DA:83,1
DA:84,1
DA:85,1
DA:86,1
DA:87,15
DA:88,2
DA:89,1
DA:90,1
DA:91,1
DA:92,1
DA:93,1
DA:94,1
DA:95,1
DA:96,1
DA:97,1
DA:98,1
DA:99,1
DA:100,1
DA:101,1
DA:102,1
DA:103,1
DA:104,1
DA:105,1
DA:106,1
DA:107,1
DA:108,1
DA:109,1
DA:110,1
DA:111,1
DA:112,0
DA:114,44
DA:123,1
DA:124,1
DA:125,1
DA:128,1
DA:129,1
DA:130,64
DA:131,64
DA:132,29
DA:133,1
DA:134,1
DA:135,1
DA:136,1
DA:139,1
DA:140,30
DA:141,29
DA:142,29
DA:143,29
DA:144,0
DA:147,1
DA:150,1
DA:151,30
DA:152,29
DA:153,29
DA:154,29
DA:155,29
DA:156,29
DA:157,29
DA:158,0
DA:161,1
DA:164,1
DA:165,30
DA:166,29
DA:167,29
DA:168,29
DA:169,0
DA:172,1
BRF:0
BRH:0
LF:138
LH:132
end_of_record
SF:/home/dimitris/my_repos/temp4/ultraplonk_verifier/src/curvehooks_impl.rs
FN:33,_RINvXNtCsk9ngD3d3DdK_17ultraplonk_no_std15curvehooks_implNtB3_14CurveHooksImplNtNtCs6xG3wsPPdwH_13ark_bn254_ext6curves10CurveHooks23bn254_multi_miller_loopINtNtNtNtCsiAVgAqkjXtQ_4core4iter8adapters3map3MapINtNtNtB2C_5array4iter8IntoIterINtNtNtNtCsjN68COmr3iS_14ark_models_ext6models2bn2g110G1PreparedINtB1g_6ConfigBT_EEKj2_ENCINvXB1g_B4O_NtB3R_8BnConfig17multi_miller_loopB3M_AB3M_B58_INtNtB3R_2g210G2PreparedB4O_EAB6b_B58_E0EIB2u_IB3i_B6b_KB58_ENCB5e_s_0EECska6KjoqsFU2_8noir_cli
FN:33,_RINvXNtCsk9ngD3d3DdK_17ultraplonk_no_std15curvehooks_implNtB3_14CurveHooksImplNtNtCs6xG3wsPPdwH_13ark_bn254_ext6curves10CurveHooks23bn254_multi_miller_loopppEB5_
FN:40,_RNvXNtCsk9ngD3d3DdK_17ultraplonk_no_std15curvehooks_implNtB2_14CurveHooksImplNtNtCs6xG3wsPPdwH_13ark_bn254_ext6curves10CurveHooks26bn254_final_exponentiation
FN:46,_RNvXNtCsk9ngD3d3DdK_17ultraplonk_no_std15curvehooks_implNtB2_14CurveHooksImplNtNtCs6xG3wsPPdwH_13ark_bn254_ext6curves10CurveHooks12bn254_msm_g1
FN:53,_RNvXNtCsk9ngD3d3DdK_17ultraplonk_no_std15curvehooks_implNtB2_14CurveHooksImplNtNtCs6xG3wsPPdwH_13ark_bn254_ext6curves10CurveHooks12bn254_msm_g2
FN:60,_RNvXNtCsk9ngD3d3DdK_17ultraplonk_no_std15curvehooks_implNtB2_14CurveHooksImplNtNtCs6xG3wsPPdwH_13ark_bn254_ext6curves10CurveHooks23bn254_mul_projective_g1
FN:64,_RNvXNtCsk9ngD3d3DdK_17ultraplonk_no_std15curvehooks_implNtB2_14CurveHooksImplNtNtCs6xG3wsPPdwH_13ark_bn254_ext6curves10CurveHooks23bn254_mul_projective_g2
FN:53,_RNvXNtCs7j5G3H6G69x_17ultraplonk_no_std15curvehooks_implNtB2_14CurveHooksImplNtNtCs6xG3wsPPdwH_13ark_bn254_ext6curves10CurveHooks12bn254_msm_g2
FN:60,_RNvXNtCs7j5G3H6G69x_17ultraplonk_no_std15curvehooks_implNtB2_14CurveHooksImplNtNtCs6xG3wsPPdwH_13ark_bn254_ext6curves10CurveHooks23bn254_mul_projective_g1
FN:40,_RNvXNtCs7j5G3H6G69x_17ultraplonk_no_std15curvehooks_implNtB2_14CurveHooksImplNtNtCs6xG3wsPPdwH_13ark_bn254_ext6curves10CurveHooks26bn254_final_exponentiation
FN:46,_RNvXNtCs7j5G3H6G69x_17ultraplonk_no_std15curvehooks_implNtB2_14CurveHooksImplNtNtCs6xG3wsPPdwH_13ark_bn254_ext6curves10CurveHooks12bn254_msm_g1
FN:64,_RNvXNtCs7j5G3H6G69x_17ultraplonk_no_std15curvehooks_implNtB2_14CurveHooksImplNtNtCs6xG3wsPPdwH_13ark_bn254_ext6curves10CurveHooks23bn254_mul_projective_g2
FN:33,_RINvXNtCs7j5G3H6G69x_17ultraplonk_no_std15curvehooks_implNtB3_14CurveHooksImplNtNtCs6xG3wsPPdwH_13ark_bn254_ext6curves10CurveHooks23bn254_multi_miller_loopINtNtNtNtCsiAVgAqkjXtQ_4core4iter8adapters3map3MapINtNtNtB2C_5array4iter8IntoIterINtNtNtNtCsjN68COmr3iS_14ark_models_ext6models2bn2g110G1PreparedINtB1g_6ConfigBT_EEKj2_ENCINvXB1g_B4O_NtB3R_8BnConfig17multi_miller_loopB3M_AB3M_B58_INtNtB3R_2g210G2PreparedB4O_EAB6b_B58_E0EIB2u_IB3i_B6b_KB58_ENCB5e_s_0EEB5_
FNDA:11,_RINvXNtCsk9ngD3d3DdK_17ultraplonk_no_std15curvehooks_implNtB3_14CurveHooksImplNtNtCs6xG3wsPPdwH_13ark_bn254_ext6curves10CurveHooks23bn254_multi_miller_loopINtNtNtNtCsiAVgAqkjXtQ_4core4iter8adapters3map3MapINtNtNtB2C_5array4iter8IntoIterINtNtNtNtCsjN68COmr3iS_14ark_models_ext6models2bn2g110G1PreparedINtB1g_6ConfigBT_EEKj2_ENCINvXB1g_B4O_NtB3R_8BnConfig17multi_miller_loopB3M_AB3M_B58_INtNtB3R_2g210G2PreparedB4O_EAB6b_B58_E0EIB2u_IB3i_B6b_KB58_ENCB5e_s_0EECska6KjoqsFU2_8noir_cli
FNDA:0,_RINvXNtCsk9ngD3d3DdK_17ultraplonk_no_std15curvehooks_implNtB3_14CurveHooksImplNtNtCs6xG3wsPPdwH_13ark_bn254_ext6curves10CurveHooks23bn254_multi_miller_loopppEB5_
FNDA:11,_RNvXNtCsk9ngD3d3DdK_17ultraplonk_no_std15curvehooks_implNtB2_14CurveHooksImplNtNtCs6xG3wsPPdwH_13ark_bn254_ext6curves10CurveHooks26bn254_final_exponentiation
FNDA:22,_RNvXNtCsk9ngD3d3DdK_17ultraplonk_no_std15curvehooks_implNtB2_14CurveHooksImplNtNtCs6xG3wsPPdwH_13ark_bn254_ext6curves10CurveHooks12bn254_msm_g1
FNDA:0,_RNvXNtCsk9ngD3d3DdK_17ultraplonk_no_std15curvehooks_implNtB2_14CurveHooksImplNtNtCs6xG3wsPPdwH_13ark_bn254_ext6curves10CurveHooks12bn254_msm_g2
FNDA:0,_RNvXNtCsk9ngD3d3DdK_17ultraplonk_no_std15curvehooks_implNtB2_14CurveHooksImplNtNtCs6xG3wsPPdwH_13ark_bn254_ext6curves10CurveHooks23bn254_mul_projective_g1
FNDA:11,_RNvXNtCsk9ngD3d3DdK_17ultraplonk_no_std15curvehooks_implNtB2_14CurveHooksImplNtNtCs6xG3wsPPdwH_13ark_bn254_ext6curves10CurveHooks23bn254_mul_projective_g2
FNDA:0,_RNvXNtCs7j5G3H6G69x_17ultraplonk_no_std15curvehooks_implNtB2_14CurveHooksImplNtNtCs6xG3wsPPdwH_13ark_bn254_ext6curves10CurveHooks12bn254_msm_g2
FNDA:0,_RNvXNtCs7j5G3H6G69x_17ultraplonk_no_std15curvehooks_implNtB2_14CurveHooksImplNtNtCs6xG3wsPPdwH_13ark_bn254_ext6curves10CurveHooks23bn254_mul_projective_g1
FNDA:1,_RNvXNtCs7j5G3H6G69x_17ultraplonk_no_std15curvehooks_implNtB2_14CurveHooksImplNtNtCs6xG3wsPPdwH_13ark_bn254_ext6curves10CurveHooks26bn254_final_exponentiation
FNDA:2,_RNvXNtCs7j5G3H6G69x_17ultraplonk_no_std15curvehooks_implNtB2_14CurveHooksImplNtNtCs6xG3wsPPdwH_13ark_bn254_ext6curves10CurveHooks12bn254_msm_g1
FNDA:1,_RNvXNtCs7j5G3H6G69x_17ultraplonk_no_std15curvehooks_implNtB2_14CurveHooksImplNtNtCs6xG3wsPPdwH_13ark_bn254_ext6curves10CurveHooks23bn254_mul_projective_g2
FNDA:1,_RINvXNtCs7j5G3H6G69x_17ultraplonk_no_std15curvehooks_implNtB3_14CurveHooksImplNtNtCs6xG3wsPPdwH_13ark_bn254_ext6curves10CurveHooks23bn254_multi_miller_loopINtNtNtNtCsiAVgAqkjXtQ_4core4iter8adapters3map3MapINtNtNtB2C_5array4iter8IntoIterINtNtNtNtCsjN68COmr3iS_14ark_models_ext6models2bn2g110G1PreparedINtB1g_6ConfigBT_EEKj2_ENCINvXB1g_B4O_NtB3R_8BnConfig17multi_miller_loopB3M_AB3M_B58_INtNtB3R_2g210G2PreparedB4O_EAB6b_B58_E0EIB2u_IB3i_B6b_KB58_ENCB5e_s_0EEB5_
FNF:6
FNH:4
DA:33,12
DA:34,12
DA:35,12
DA:36,12
DA:37,12
DA:38,12
DA:40,12
DA:41,12
DA:42,12
DA:43,12
DA:44,12
DA:46,24
DA:47,24
DA:48,24
DA:49,24
DA:50,24
DA:51,24
DA:53,0
DA:54,0
DA:55,0
DA:56,0
DA:57,0
DA:58,0
DA:60,0
DA:61,0
DA:62,0
DA:64,12
DA:65,12
DA:66,12
BRF:0
BRH:0
LF:29
LH:20
end_of_record
SF:/home/dimitris/my_repos/temp4/ultraplonk_verifier/src/errors.rs
FN:21,_RNvMs1_NtCsk9ngD3d3DdK_17ultraplonk_no_std6errorsNtB5_10OtherSnafu5build
FN:21,_RINvMs1_NtCsk9ngD3d3DdK_17ultraplonk_no_std6errorsNtB6_10OtherSnafu4failpEB8_
FN:21,_RNvMs3_NtCsk9ngD3d3DdK_17ultraplonk_no_std6errorsINtB5_16PublicInputSnafupE5buildB7_
FN:21,_RINvMs3_NtCsk9ngD3d3DdK_17ultraplonk_no_std6errorsINtB6_16PublicInputSnafupE4failpEB8_
FN:21,_RNvXININtCsk9ngD3d3DdK_17ultraplonk_no_std6errorss4_0pEINtB5_16PublicInputSnafupEINtCsi5jKAOe9cvS_5snafu9IntoErrorNtB5_11VerifyErrorE10into_errorB7_
FN:21,_RNvMs5_NtCsk9ngD3d3DdK_17ultraplonk_no_std6errorsNtB5_17InvalidProofSnafu5build
FN:21,_RINvMs5_NtCsk9ngD3d3DdK_17ultraplonk_no_std6errorsNtB6_17InvalidProofSnafu4failpEB8_
FN:21,_RNvMs7_NtCsk9ngD3d3DdK_17ultraplonk_no_std6errorsNtB5_17VerificationSnafu5build
FN:21,_RINvMs7_NtCsk9ngD3d3DdK_17ultraplonk_no_std6errorsNtB6_17VerificationSnafu4failpEB8_
FN:21,_RNvMs9_NtCsk9ngD3d3DdK_17ultraplonk_no_std6errorsNtB5_8KeySnafu5build
FN:21,_RINvMs9_NtCsk9ngD3d3DdK_17ultraplonk_no_std6errorsNtB6_8KeySnafu4failpEB8_
FN:21,_RNvMs1_NtCs7j5G3H6G69x_17ultraplonk_no_std6errorsNtB5_10OtherSnafu5build
FN:21,_RINvMs1_NtCs7j5G3H6G69x_17ultraplonk_no_std6errorsNtB6_10OtherSnafu4failpEB8_
FN:21,_RNvXs2_NtCs7j5G3H6G69x_17ultraplonk_no_std6errorsNtB5_10OtherSnafuINtCsi5jKAOe9cvS_5snafu9IntoErrorNtB5_11VerifyErrorE10into_error
FN:21,_RNvMs3_NtCs7j5G3H6G69x_17ultraplonk_no_std6errorsINtB5_16PublicInputSnafupE5buildB7_
FN:21,_RINvMs3_NtCs7j5G3H6G69x_17ultraplonk_no_std6errorsINtB6_16PublicInputSnafupE4failpEB8_
FN:21,_RNvXININtCs7j5G3H6G69x_17ultraplonk_no_std6errorss4_0pEINtB5_16PublicInputSnafupEINtCsi5jKAOe9cvS_5snafu9IntoErrorNtB5_11VerifyErrorE10into_errorB7_
FN:21,_RNvMs5_NtCs7j5G3H6G69x_17ultraplonk_no_std6errorsNtB5_17InvalidProofSnafu5build
FN:21,_RINvMs5_NtCs7j5G3H6G69x_17ultraplonk_no_std6errorsNtB6_17InvalidProofSnafu4failpEB8_
FN:21,_RNvXs6_NtCs7j5G3H6G69x_17ultraplonk_no_std6errorsNtB5_17InvalidProofSnafuINtCsi5jKAOe9cvS_5snafu9IntoErrorNtB5_11VerifyErrorE10into_error
FN:21,_RNvMs7_NtCs7j5G3H6G69x_17ultraplonk_no_std6errorsNtB5_17VerificationSnafu5build
FN:21,_RINvMs7_NtCs7j5G3H6G69x_17ultraplonk_no_std6errorsNtB6_17VerificationSnafu4failpEB8_
FN:21,_RNvXs8_NtCs7j5G3H6G69x_17ultraplonk_no_std6errorsNtB5_17VerificationSnafuINtCsi5jKAOe9cvS_5snafu9IntoErrorNtB5_11VerifyErrorE10into_error
FN:21,_RNvMs9_NtCs7j5G3H6G69x_17ultraplonk_no_std6errorsNtB5_8KeySnafu5build
FN:21,_RINvMs9_NtCs7j5G3H6G69x_17ultraplonk_no_std6errorsNtB6_8KeySnafu4failpEB8_
FN:21,_RNvXsa_NtCs7j5G3H6G69x_17ultraplonk_no_std6errorsNtB5_8KeySnafuINtCsi5jKAOe9cvS_5snafu9IntoErrorNtB5_11VerifyErrorE10into_error
FN:21,_RNvXsb_NtCs7j5G3H6G69x_17ultraplonk_no_std6errorsNtB5_11VerifyErrorNtNtCsiAVgAqkjXtQ_4core3fmt7Display3fmt
FN:21,_RNvXsc_NtCs7j5G3H6G69x_17ultraplonk_no_std6errorsNtB5_11VerifyErrorNtNtCsi5jKAOe9cvS_5snafu14fallback_error5Error11description
FN:21,_RNvXsc_NtCs7j5G3H6G69x_17ultraplonk_no_std6errorsNtB5_11VerifyErrorNtNtCsi5jKAOe9cvS_5snafu14fallback_error5Error5cause
FN:21,_RNvXsc_NtCs7j5G3H6G69x_17ultraplonk_no_std6errorsNtB5_11VerifyErrorNtNtCsi5jKAOe9cvS_5snafu14fallback_error5Error6source
FN:21,_RNvXsd_NtCs7j5G3H6G69x_17ultraplonk_no_std6errorsNtB5_11VerifyErrorNtCsi5jKAOe9cvS_5snafu11ErrorCompat9backtrace
FNDA:0,_RNvMs1_NtCsk9ngD3d3DdK_17ultraplonk_no_std6errorsNtB5_10OtherSnafu5build
FNDA:0,_RINvMs1_NtCsk9ngD3d3DdK_17ultraplonk_no_std6errorsNtB6_10OtherSnafu4failpEB8_
FNDA:0,_RNvMs3_NtCsk9ngD3d3DdK_17ultraplonk_no_std6errorsINtB5_16PublicInputSnafupE5buildB7_
FNDA:0,_RINvMs3_NtCsk9ngD3d3DdK_17ultraplonk_no_std6errorsINtB6_16PublicInputSnafupE4failpEB8_
FNDA:0,_RNvXININtCsk9ngD3d3DdK_17ultraplonk_no_std6errorss4_0pEINtB5_16PublicInputSnafupEINtCsi5jKAOe9cvS_5snafu9IntoErrorNtB5_11VerifyErrorE10into_errorB7_
FNDA:0,_RNvMs5_NtCsk9ngD3d3DdK_17ultraplonk_no_std6errorsNtB5_17InvalidProofSnafu5build
FNDA:0,_RINvMs5_NtCsk9ngD3d3DdK_17ultraplonk_no_std6errorsNtB6_17InvalidProofSnafu4failpEB8_
FNDA:0,_RNvMs7_NtCsk9ngD3d3DdK_17ultraplonk_no_std6errorsNtB5_17VerificationSnafu5build
FNDA:0,_RINvMs7_NtCsk9ngD3d3DdK_17ultraplonk_no_std6errorsNtB6_17VerificationSnafu4failpEB8_
FNDA:0,_RNvMs9_NtCsk9ngD3d3DdK_17ultraplonk_no_std6errorsNtB5_8KeySnafu5build
FNDA:0,_RINvMs9_NtCsk9ngD3d3DdK_17ultraplonk_no_std6errorsNtB6_8KeySnafu4failpEB8_
FNDA:0,_RNvMs1_NtCs7j5G3H6G69x_17ultraplonk_no_std6errorsNtB5_10OtherSnafu5build
FNDA:0,_RINvMs1_NtCs7j5G3H6G69x_17ultraplonk_no_std6errorsNtB6_10OtherSnafu4failpEB8_
FNDA:0,_RNvXs2_NtCs7j5G3H6G69x_17ultraplonk_no_std6errorsNtB5_10OtherSnafuINtCsi5jKAOe9cvS_5snafu9IntoErrorNtB5_11VerifyErrorE10into_error
FNDA:0,_RNvMs3_NtCs7j5G3H6G69x_17ultraplonk_no_std6errorsINtB5_16PublicInputSnafupE5buildB7_
FNDA:0,_RINvMs3_NtCs7j5G3H6G69x_17ultraplonk_no_std6errorsINtB6_16PublicInputSnafupE4failpEB8_
FNDA:0,_RNvXININtCs7j5G3H6G69x_17ultraplonk_no_std6errorss4_0pEINtB5_16PublicInputSnafupEINtCsi5jKAOe9cvS_5snafu9IntoErrorNtB5_11VerifyErrorE10into_errorB7_
FNDA:0,_RNvMs5_NtCs7j5G3H6G69x_17ultraplonk_no_std6errorsNtB5_17InvalidProofSnafu5build
FNDA:0,_RINvMs5_NtCs7j5G3H6G69x_17ultraplonk_no_std6errorsNtB6_17InvalidProofSnafu4failpEB8_
FNDA:0,_RNvXs6_NtCs7j5G3H6G69x_17ultraplonk_no_std6errorsNtB5_17InvalidProofSnafuINtCsi5jKAOe9cvS_5snafu9IntoErrorNtB5_11VerifyErrorE10into_error
FNDA:0,_RNvMs7_NtCs7j5G3H6G69x_17ultraplonk_no_std6errorsNtB5_17VerificationSnafu5build
FNDA:0,_RINvMs7_NtCs7j5G3H6G69x_17ultraplonk_no_std6errorsNtB6_17VerificationSnafu4failpEB8_
FNDA:0,_RNvXs8_NtCs7j5G3H6G69x_17ultraplonk_no_std6errorsNtB5_17VerificationSnafuINtCsi5jKAOe9cvS_5snafu9IntoErrorNtB5_11VerifyErrorE10into_error
FNDA:0,_RNvMs9_NtCs7j5G3H6G69x_17ultraplonk_no_std6errorsNtB5_8KeySnafu5build
FNDA:0,_RINvMs9_NtCs7j5G3H6G69x_17ultraplonk_no_std6errorsNtB6_8KeySnafu4failpEB8_
FNDA:0,_RNvXsa_NtCs7j5G3H6G69x_17ultraplonk_no_std6errorsNtB5_8KeySnafuINtCsi5jKAOe9cvS_5snafu9IntoErrorNtB5_11VerifyErrorE10into_error
FNDA:0,_RNvXsb_NtCs7j5G3H6G69x_17ultraplonk_no_std6errorsNtB5_11VerifyErrorNtNtCsiAVgAqkjXtQ_4core3fmt7Display3fmt
FNDA:0,_RNvXsc_NtCs7j5G3H6G69x_17ultraplonk_no_std6errorsNtB5_11VerifyErrorNtNtCsi5jKAOe9cvS_5snafu14fallback_error5Error11description
FNDA:0,_RNvXsc_NtCs7j5G3H6G69x_17ultraplonk_no_std6errorsNtB5_11VerifyErrorNtNtCsi5jKAOe9cvS_5snafu14fallback_error5Error5cause
FNDA:0,_RNvXsc_NtCs7j5G3H6G69x_17ultraplonk_no_std6errorsNtB5_11VerifyErrorNtNtCsi5jKAOe9cvS_5snafu14fallback_error5Error6source
FNDA:0,_RNvXsd_NtCs7j5G3H6G69x_17ultraplonk_no_std6errorsNtB5_11VerifyErrorNtCsi5jKAOe9cvS_5snafu11ErrorCompat9backtrace
FNF:2
FNH:0
DA:21,0
BRF:0
BRH:0
LF:2
LH:0
end_of_record
SF:/home/dimitris/my_repos/temp4/ultraplonk_verifier/src/key.rs
FN:716,_RINvNtCsk9ngD3d3DdK_17ultraplonk_no_std3key15read_commitmentNtNtB4_15curvehooks_impl14CurveHooksImplECska6KjoqsFU2_8noir_cli
FN:446,_RINvNtCsk9ngD3d3DdK_17ultraplonk_no_std3key6get_g1NtNtB4_15curvehooks_impl14CurveHooksImplECska6KjoqsFU2_8noir_cli
FN:747,_RINvNtCsk9ngD3d3DdK_17ultraplonk_no_std3key7read_g1NtNtB4_15curvehooks_impl14CurveHooksImplECska6KjoqsFU2_8noir_cli
FN:790,_RINvNtCsk9ngD3d3DdK_17ultraplonk_no_std3key7read_g2NtNtB4_15curvehooks_impl14CurveHooksImplECska6KjoqsFU2_8noir_cli
FN:729,_RNCINvNtCsk9ngD3d3DdK_17ultraplonk_no_std3key15read_commitmentNtNtB6_15curvehooks_impl14CurveHooksImplE0Cska6KjoqsFU2_8noir_cli
FN:732,_RNCINvNtCsk9ngD3d3DdK_17ultraplonk_no_std3key15read_commitmentNtNtB6_15curvehooks_impl14CurveHooksImplEs_0Cska6KjoqsFU2_8noir_cli
FN:751,_RNCINvNtCsk9ngD3d3DdK_17ultraplonk_no_std3key7read_g1NtNtB6_15curvehooks_impl14CurveHooksImplE0Cska6KjoqsFU2_8noir_cli
FN:278,_RNCNvMs_NtCsk9ngD3d3DdK_17ultraplonk_no_std3keyINtB6_15VerificationKeyNtNtB8_15curvehooks_impl14CurveHooksImplE23try_from_solidity_bytes0Cska6KjoqsFU2_8noir_cli
FN:285,_RNCNvMs_NtCsk9ngD3d3DdK_17ultraplonk_no_std3keyINtB6_15VerificationKeyNtNtB8_15curvehooks_impl14CurveHooksImplE23try_from_solidity_bytess0_0Cska6KjoqsFU2_8noir_cli
FN:289,_RNCNvMs_NtCsk9ngD3d3DdK_17ultraplonk_no_std3keyINtB6_15VerificationKeyNtNtB8_15curvehooks_impl14CurveHooksImplE23try_from_solidity_bytess1_0Cska6KjoqsFU2_8noir_cli
FN:293,_RNCNvMs_NtCsk9ngD3d3DdK_17ultraplonk_no_std3keyINtB6_15VerificationKeyNtNtB8_15curvehooks_impl14CurveHooksImplE23try_from_solidity_bytess2_0Cska6KjoqsFU2_8noir_cli
FN:297,_RNCNvMs_NtCsk9ngD3d3DdK_17ultraplonk_no_std3keyINtB6_15VerificationKeyNtNtB8_15curvehooks_impl14CurveHooksImplE23try_from_solidity_bytess3_0Cska6KjoqsFU2_8noir_cli
FN:301,_RNCNvMs_NtCsk9ngD3d3DdK_17ultraplonk_no_std3keyINtB6_15VerificationKeyNtNtB8_15curvehooks_impl14CurveHooksImplE23try_from_solidity_bytess4_0Cska6KjoqsFU2_8noir_cli
FN:305,_RNCNvMs_NtCsk9ngD3d3DdK_17ultraplonk_no_std3keyINtB6_15VerificationKeyNtNtB8_15curvehooks_impl14CurveHooksImplE23try_from_solidity_bytess5_0Cska6KjoqsFU2_8noir_cli
FN:309,_RNCNvMs_NtCsk9ngD3d3DdK_17ultraplonk_no_std3keyINtB6_15VerificationKeyNtNtB8_15curvehooks_impl14CurveHooksImplE23try_from_solidity_bytess6_0Cska6KjoqsFU2_8noir_cli
FN:313,_RNCNvMs_NtCsk9ngD3d3DdK_17ultraplonk_no_std3keyINtB6_15VerificationKeyNtNtB8_15curvehooks_impl14CurveHooksImplE23try_from_solidity_bytess7_0Cska6KjoqsFU2_8noir_cli
FN:317,_RNCNvMs_NtCsk9ngD3d3DdK_17ultraplonk_no_std3keyINtB6_15VerificationKeyNtNtB8_15curvehooks_impl14CurveHooksImplE23try_from_solidity_bytess8_0Cska6KjoqsFU2_8noir_cli
FN:321,_RNCNvMs_NtCsk9ngD3d3DdK_17ultraplonk_no_std3keyINtB6_15VerificationKeyNtNtB8_15curvehooks_impl14CurveHooksImplE23try_from_solidity_bytess9_0Cska6KjoqsFU2_8noir_cli
FN:281,_RNCNvMs_NtCsk9ngD3d3DdK_17ultraplonk_no_std3keyINtB6_15VerificationKeyNtNtB8_15curvehooks_impl14CurveHooksImplE23try_from_solidity_bytess_0Cska6KjoqsFU2_8noir_cli
FN:325,_RNCNvMs_NtCsk9ngD3d3DdK_17ultraplonk_no_std3keyINtB6_15VerificationKeyNtNtB8_15curvehooks_impl14CurveHooksImplE23try_from_solidity_bytessa_0Cska6KjoqsFU2_8noir_cli
FN:329,_RNCNvMs_NtCsk9ngD3d3DdK_17ultraplonk_no_std3keyINtB6_15VerificationKeyNtNtB8_15curvehooks_impl14CurveHooksImplE23try_from_solidity_bytessb_0Cska6KjoqsFU2_8noir_cli
FN:333,_RNCNvMs_NtCsk9ngD3d3DdK_17ultraplonk_no_std3keyINtB6_15VerificationKeyNtNtB8_15curvehooks_impl14CurveHooksImplE23try_from_solidity_bytessc_0Cska6KjoqsFU2_8noir_cli
FN:337,_RNCNvMs_NtCsk9ngD3d3DdK_17ultraplonk_no_std3keyINtB6_15VerificationKeyNtNtB8_15curvehooks_impl14CurveHooksImplE23try_from_solidity_bytessd_0Cska6KjoqsFU2_8noir_cli
FN:341,_RNCNvMs_NtCsk9ngD3d3DdK_17ultraplonk_no_std3keyINtB6_15VerificationKeyNtNtB8_15curvehooks_impl14CurveHooksImplE23try_from_solidity_bytesse_0Cska6KjoqsFU2_8noir_cli
FN:345,_RNCNvMs_NtCsk9ngD3d3DdK_17ultraplonk_no_std3keyINtB6_15VerificationKeyNtNtB8_15curvehooks_impl14CurveHooksImplE23try_from_solidity_bytessf_0Cska6KjoqsFU2_8noir_cli
FN:349,_RNCNvMs_NtCsk9ngD3d3DdK_17ultraplonk_no_std3keyINtB6_15VerificationKeyNtNtB8_15curvehooks_impl14CurveHooksImplE23try_from_solidity_bytessg_0Cska6KjoqsFU2_8noir_cli
FN:353,_RNCNvMs_NtCsk9ngD3d3DdK_17ultraplonk_no_std3keyINtB6_15VerificationKeyNtNtB8_15curvehooks_impl14CurveHooksImplE23try_from_solidity_bytessh_0Cska6KjoqsFU2_8noir_cli
FN:357,_RNCNvMs_NtCsk9ngD3d3DdK_17ultraplonk_no_std3keyINtB6_15VerificationKeyNtNtB8_15curvehooks_impl14CurveHooksImplE23try_from_solidity_bytessi_0Cska6KjoqsFU2_8noir_cli
FN:361,_RNCNvMs_NtCsk9ngD3d3DdK_17ultraplonk_no_std3keyINtB6_15VerificationKeyNtNtB8_15curvehooks_impl14CurveHooksImplE23try_from_solidity_bytessj_0Cska6KjoqsFU2_8noir_cli
FN:365,_RNCNvMs_NtCsk9ngD3d3DdK_17ultraplonk_no_std3keyINtB6_15VerificationKeyNtNtB8_15curvehooks_impl14CurveHooksImplE23try_from_solidity_bytessk_0Cska6KjoqsFU2_8noir_cli
FN:369,_RNCNvMs_NtCsk9ngD3d3DdK_17ultraplonk_no_std3keyINtB6_15VerificationKeyNtNtB8_15curvehooks_impl14CurveHooksImplE23try_from_solidity_bytessl_0Cska6KjoqsFU2_8noir_cli
FN:374,_RNCNvMs_NtCsk9ngD3d3DdK_17ultraplonk_no_std3keyINtB6_15VerificationKeyNtNtB8_15curvehooks_impl14CurveHooksImplE23try_from_solidity_bytessm_0Cska6KjoqsFU2_8noir_cli
FN:380,_RNCNvMs_NtCsk9ngD3d3DdK_17ultraplonk_no_std3keyINtB6_15VerificationKeyNtNtB8_15curvehooks_impl14CurveHooksImplE23try_from_solidity_bytessn_0Cska6KjoqsFU2_8noir_cli
FN:620,_RNCNvXs2_NtCsk9ngD3d3DdK_17ultraplonk_no_std3keyINtB7_15VerificationKeyNtNtB9_15curvehooks_impl14CurveHooksImplEINtNtCsiAVgAqkjXtQ_4core7convert7TryFromRShE8try_from0Cska6KjoqsFU2_8noir_cli
FN:198,_RNvMs_NtCsk9ngD3d3DdK_17ultraplonk_no_std3keyINtB4_15VerificationKeyNtNtB6_15curvehooks_impl14CurveHooksImplE17as_solidity_bytesCska6KjoqsFU2_8noir_cli
FN:255,_RNvMs_NtCsk9ngD3d3DdK_17ultraplonk_no_std3keyINtB4_15VerificationKeyNtNtB6_15curvehooks_impl14CurveHooksImplE23try_from_solidity_bytesCska6KjoqsFU2_8noir_cli
FN:504,_RNvXs0_NtCsk9ngD3d3DdK_17ultraplonk_no_std3keyINtB5_23PreparedVerificationKeyNtNtB7_15curvehooks_impl14CurveHooksImplEINtNtCsiAVgAqkjXtQ_4core7convert4FromRINtB5_15VerificationKeyB1d_EE4fromCska6KjoqsFU2_8noir_cli
FN:592,_RNvXs2_NtCsk9ngD3d3DdK_17ultraplonk_no_std3keyINtB5_15VerificationKeyNtNtB7_15curvehooks_impl14CurveHooksImplEINtNtCsiAVgAqkjXtQ_4core7convert7TryFromRShE8try_fromCska6KjoqsFU2_8noir_cli
FN:36,_RNvMs6_NtCsk9ngD3d3DdK_17ultraplonk_no_std3keyNtB5_19BufferTooShortSnafu5build
FN:36,_RINvMs6_NtCsk9ngD3d3DdK_17ultraplonk_no_std3keyNtB6_19BufferTooShortSnafu4failpEB8_
FN:36,_RNvMs8_NtCsk9ngD3d3DdK_17ultraplonk_no_std3keyINtB5_23InvalidSliceLengthSnafuppE5buildB7_
FN:36,_RINvMs8_NtCsk9ngD3d3DdK_17ultraplonk_no_std3keyINtB6_23InvalidSliceLengthSnafuppE4failpEB8_
FN:36,_RNvXININtCsk9ngD3d3DdK_17ultraplonk_no_std3keys9_0ppEINtB5_23InvalidSliceLengthSnafuppEINtCsi5jKAOe9cvS_5snafu9IntoErrorNtB5_20VerificationKeyErrorE10into_errorB7_
FN:36,_RNvMsa_NtCsk9ngD3d3DdK_17ultraplonk_no_std3keyINtB5_20PointNotOnCurveSnafupE5buildB7_
FN:36,_RINvMsa_NtCsk9ngD3d3DdK_17ultraplonk_no_std3keyINtB6_20PointNotOnCurveSnafupE4failpEB8_
FN:36,_RNvXININtCsk9ngD3d3DdK_17ultraplonk_no_std3keysb_0pEINtB5_20PointNotOnCurveSnafupEINtCsi5jKAOe9cvS_5snafu9IntoErrorNtB5_20VerificationKeyErrorE10into_errorB7_
FN:36,_RNvMsc_NtCsk9ngD3d3DdK_17ultraplonk_no_std3keyNtB5_23InvalidCircuitTypeSnafu5build
FN:36,_RINvMsc_NtCsk9ngD3d3DdK_17ultraplonk_no_std3keyNtB6_23InvalidCircuitTypeSnafu4failpEB8_
FN:36,_RNvMse_NtCsk9ngD3d3DdK_17ultraplonk_no_std3keyNtB5_23InvalidCircuitSizeSnafu5build
FN:36,_RINvMse_NtCsk9ngD3d3DdK_17ultraplonk_no_std3keyNtB6_23InvalidCircuitSizeSnafu4failpEB8_
FN:36,_RNvMsg_NtCsk9ngD3d3DdK_17ultraplonk_no_std3keyNtB5_32InvalidNumberOfPublicInputsSnafu5build
FN:36,_RINvMsg_NtCsk9ngD3d3DdK_17ultraplonk_no_std3keyNtB6_32InvalidNumberOfPublicInputsSnafu4failpEB8_
FN:36,_RNvMsi_NtCsk9ngD3d3DdK_17ultraplonk_no_std3keyINtB5_27InvalidCommitmentFieldSnafupE5buildB7_
FN:36,_RINvMsi_NtCsk9ngD3d3DdK_17ultraplonk_no_std3keyINtB6_27InvalidCommitmentFieldSnafupE4failpEB8_
FN:36,_RNvXININtCsk9ngD3d3DdK_17ultraplonk_no_std3keysj_0pEINtB5_27InvalidCommitmentFieldSnafupEINtCsi5jKAOe9cvS_5snafu9IntoErrorNtB5_20VerificationKeyErrorE10into_errorB7_
FN:36,_RNvMsk_NtCsk9ngD3d3DdK_17ultraplonk_no_std3keyNtB5_29InvalidCommitmentsNumberSnafu5build
FN:36,_RINvMsk_NtCsk9ngD3d3DdK_17ultraplonk_no_std3keyNtB6_29InvalidCommitmentsNumberSnafu4failpEB8_
FN:36,_RNvMsm_NtCsk9ngD3d3DdK_17ultraplonk_no_std3keyNtB5_25InvalidCommitmentKeySnafu5build
FN:36,_RINvMsm_NtCsk9ngD3d3DdK_17ultraplonk_no_std3keyNtB6_25InvalidCommitmentKeySnafu4failpEB8_
FN:36,_RNvMso_NtCsk9ngD3d3DdK_17ultraplonk_no_std3keyINtB5_28UnexpectedCommitmentKeySnafuppE5buildB7_
FN:36,_RINvMso_NtCsk9ngD3d3DdK_17ultraplonk_no_std3keyINtB6_28UnexpectedCommitmentKeySnafuppE4failpEB8_
FN:36,_RNvXININtCsk9ngD3d3DdK_17ultraplonk_no_std3keysp_0ppEINtB5_28UnexpectedCommitmentKeySnafuppEINtCsi5jKAOe9cvS_5snafu9IntoErrorNtB5_20VerificationKeyErrorE10into_errorB7_
FN:36,_RNvMsq_NtCsk9ngD3d3DdK_17ultraplonk_no_std3keyNtB5_26RecursionNotSupportedSnafu5build
FN:36,_RINvMsq_NtCsk9ngD3d3DdK_17ultraplonk_no_std3keyNtB6_26RecursionNotSupportedSnafu4failpEB8_
FN:198,_RNvMs_NtCsk9ngD3d3DdK_17ultraplonk_no_std3keyINtB4_15VerificationKeypE17as_solidity_bytesB6_
FN:255,_RNvMs_NtCsk9ngD3d3DdK_17ultraplonk_no_std3keyINtB4_15VerificationKeypE23try_from_solidity_bytesB6_
FN:278,_RNCNvMs_NtCsk9ngD3d3DdK_17ultraplonk_no_std3keyINtB6_15VerificationKeypE23try_from_solidity_bytes0B8_
FN:281,_RNCNvMs_NtCsk9ngD3d3DdK_17ultraplonk_no_std3keyINtB6_15VerificationKeypE23try_from_solidity_bytess_0B8_
FN:285,_RNCNvMs_NtCsk9ngD3d3DdK_17ultraplonk_no_std3keyINtB6_15VerificationKeypE23try_from_solidity_bytess0_0B8_
FN:289,_RNCNvMs_NtCsk9ngD3d3DdK_17ultraplonk_no_std3keyINtB6_15VerificationKeypE23try_from_solidity_bytess1_0B8_
FN:293,_RNCNvMs_NtCsk9ngD3d3DdK_17ultraplonk_no_std3keyINtB6_15VerificationKeypE23try_from_solidity_bytess2_0B8_
FN:297,_RNCNvMs_NtCsk9ngD3d3DdK_17ultraplonk_no_std3keyINtB6_15VerificationKeypE23try_from_solidity_bytess3_0B8_
FN:301,_RNCNvMs_NtCsk9ngD3d3DdK_17ultraplonk_no_std3keyINtB6_15VerificationKeypE23try_from_solidity_bytess4_0B8_
FN:305,_RNCNvMs_NtCsk9ngD3d3DdK_17ultraplonk_no_std3keyINtB6_15VerificationKeypE23try_from_solidity_bytess5_0B8_
FN:309,_RNCNvMs_NtCsk9ngD3d3DdK_17ultraplonk_no_std3keyINtB6_15VerificationKeypE23try_from_solidity_bytess6_0B8_
FN:313,_RNCNvMs_NtCsk9ngD3d3DdK_17ultraplonk_no_std3keyINtB6_15VerificationKeypE23try_from_solidity_bytess7_0B8_
FN:317,_RNCNvMs_NtCsk9ngD3d3DdK_17ultraplonk_no_std3keyINtB6_15VerificationKeypE23try_from_solidity_bytess8_0B8_
FN:321,_RNCNvMs_NtCsk9ngD3d3DdK_17ultraplonk_no_std3keyINtB6_15VerificationKeypE23try_from_solidity_bytess9_0B8_
FN:325,_RNCNvMs_NtCsk9ngD3d3DdK_17ultraplonk_no_std3keyINtB6_15VerificationKeypE23try_from_solidity_bytessa_0B8_
FN:329,_RNCNvMs_NtCsk9ngD3d3DdK_17ultraplonk_no_std3keyINtB6_15VerificationKeypE23try_from_solidity_bytessb_0B8_
FN:333,_RNCNvMs_NtCsk9ngD3d3DdK_17ultraplonk_no_std3keyINtB6_15VerificationKeypE23try_from_solidity_bytessc_0B8_
FN:337,_RNCNvMs_NtCsk9ngD3d3DdK_17ultraplonk_no_std3keyINtB6_15VerificationKeypE23try_from_solidity_bytessd_0B8_
FN:341,_RNCNvMs_NtCsk9ngD3d3DdK_17ultraplonk_no_std3keyINtB6_15VerificationKeypE23try_from_solidity_bytesse_0B8_
FN:345,_RNCNvMs_NtCsk9ngD3d3DdK_17ultraplonk_no_std3keyINtB6_15VerificationKeypE23try_from_solidity_bytessf_0B8_
FN:349,_RNCNvMs_NtCsk9ngD3d3DdK_17ultraplonk_no_std3keyINtB6_15VerificationKeypE23try_from_solidity_bytessg_0B8_
FN:353,_RNCNvMs_NtCsk9ngD3d3DdK_17ultraplonk_no_std3keyINtB6_15VerificationKeypE23try_from_solidity_bytessh_0B8_
FN:357,_RNCNvMs_NtCsk9ngD3d3DdK_17ultraplonk_no_std3keyINtB6_15VerificationKeypE23try_from_solidity_bytessi_0B8_
FN:361,_RNCNvMs_NtCsk9ngD3d3DdK_17ultraplonk_no_std3keyINtB6_15VerificationKeypE23try_from_solidity_bytessj_0B8_
FN:365,_RNCNvMs_NtCsk9ngD3d3DdK_17ultraplonk_no_std3keyINtB6_15VerificationKeypE23try_from_solidity_bytessk_0B8_
FN:369,_RNCNvMs_NtCsk9ngD3d3DdK_17ultraplonk_no_std3keyINtB6_15VerificationKeypE23try_from_solidity_bytessl_0B8_
FN:374,_RNCNvMs_NtCsk9ngD3d3DdK_17ultraplonk_no_std3keyINtB6_15VerificationKeypE23try_from_solidity_bytessm_0B8_
FN:380,_RNCNvMs_NtCsk9ngD3d3DdK_17ultraplonk_no_std3keyINtB6_15VerificationKeypE23try_from_solidity_bytessn_0B8_
FN:446,_RINvNtCsk9ngD3d3DdK_17ultraplonk_no_std3key6get_g1pEB4_
FN:504,_RNvXININtCsk9ngD3d3DdK_17ultraplonk_no_std3keys0_0pEINtB5_23PreparedVerificationKeypEINtNtCsiAVgAqkjXtQ_4core7convert4FromRINtB5_15VerificationKeypEE4fromB7_
FN:546,_RNvMs1_NtCsk9ngD3d3DdK_17ultraplonk_no_std3keyINtB5_15VerificationKeypE8as_bytesB7_
FN:592,_RNvXININtCsk9ngD3d3DdK_17ultraplonk_no_std3keys2_0pEINtB5_15VerificationKeypEINtNtCsiAVgAqkjXtQ_4core7convert7TryFromRShE8try_fromB7_
FN:620,_RNCNvXININtCsk9ngD3d3DdK_17ultraplonk_no_std3keys2_0pEINtB7_15VerificationKeypEINtNtCsiAVgAqkjXtQ_4core7convert7TryFromRShE8try_from0B9_
FN:716,_RINvNtCsk9ngD3d3DdK_17ultraplonk_no_std3key15read_commitmentpEB4_
FN:729,_RNCINvNtCsk9ngD3d3DdK_17ultraplonk_no_std3key15read_commitmentpE0B6_
FN:732,_RNCINvNtCsk9ngD3d3DdK_17ultraplonk_no_std3key15read_commitmentpEs_0B6_
FN:747,_RINvNtCsk9ngD3d3DdK_17ultraplonk_no_std3key7read_g1pEB4_
FN:751,_RNCINvNtCsk9ngD3d3DdK_17ultraplonk_no_std3key7read_g1pE0B6_
FN:766,_RINvNtCsk9ngD3d3DdK_17ultraplonk_no_std3key8write_g1pEB4_
FN:768,_RNCINvNtCsk9ngD3d3DdK_17ultraplonk_no_std3key8write_g1pE0B6_
FN:777,_RNCINvNtCsk9ngD3d3DdK_17ultraplonk_no_std3key8write_g1pEs_0B6_
FN:790,_RINvNtCsk9ngD3d3DdK_17ultraplonk_no_std3key7read_g2pEB4_
FN:107,_RNvMNtCsk9ngD3d3DdK_17ultraplonk_no_std3keyNtB2_15CommitmentField3str
FN:135,_RNvMNtCsk9ngD3d3DdK_17ultraplonk_no_std3keyNtB2_15CommitmentField8try_from
FN:418,_RNvNtCsk9ngD3d3DdK_17ultraplonk_no_std3key8get_u256
FN:424,_RNvNtCsk9ngD3d3DdK_17ultraplonk_no_std3key7get_u32
FN:435,_RNvNtCsk9ngD3d3DdK_17ultraplonk_no_std3key8get_bool
FN:703,_RNvNtCsk9ngD3d3DdK_17ultraplonk_no_std3key8read_u32
FN:708,_RNvNtCsk9ngD3d3DdK_17ultraplonk_no_std3key9read_bool
FN:36,_RNvXs7_NtCsk9ngD3d3DdK_17ultraplonk_no_std3keyNtB5_19BufferTooShortSnafuINtCsi5jKAOe9cvS_5snafu9IntoErrorNtB5_20VerificationKeyErrorE10into_error
FN:36,_RNvXsd_NtCsk9ngD3d3DdK_17ultraplonk_no_std3keyNtB5_23InvalidCircuitTypeSnafuINtCsi5jKAOe9cvS_5snafu9IntoErrorNtB5_20VerificationKeyErrorE10into_error
FN:36,_RNvXsf_NtCsk9ngD3d3DdK_17ultraplonk_no_std3keyNtB5_23InvalidCircuitSizeSnafuINtCsi5jKAOe9cvS_5snafu9IntoErrorNtB5_20VerificationKeyErrorE10into_error
FN:36,_RNvXsh_NtCsk9ngD3d3DdK_17ultraplonk_no_std3keyNtB5_32InvalidNumberOfPublicInputsSnafuINtCsi5jKAOe9cvS_5snafu9IntoErrorNtB5_20VerificationKeyErrorE10into_error
FN:36,_RNvXsl_NtCsk9ngD3d3DdK_17ultraplonk_no_std3keyNtB5_29InvalidCommitmentsNumberSnafuINtCsi5jKAOe9cvS_5snafu9IntoErrorNtB5_20VerificationKeyErrorE10into_error
FN:36,_RNvXsn_NtCsk9ngD3d3DdK_17ultraplonk_no_std3keyNtB5_25InvalidCommitmentKeySnafuINtCsi5jKAOe9cvS_5snafu9IntoErrorNtB5_20VerificationKeyErrorE10into_error
FN:36,_RNvXsr_NtCsk9ngD3d3DdK_17ultraplonk_no_std3keyNtB5_26RecursionNotSupportedSnafuINtCsi5jKAOe9cvS_5snafu9IntoErrorNtB5_20VerificationKeyErrorE10into_error
FN:36,_RNvXss_NtCsk9ngD3d3DdK_17ultraplonk_no_std3keyNtB5_20VerificationKeyErrorNtNtCsiAVgAqkjXtQ_4core3fmt7Display3fmt
FN:36,_RNvXst_NtCsk9ngD3d3DdK_17ultraplonk_no_std3keyNtB5_20VerificationKeyErrorNtNtCsi5jKAOe9cvS_5snafu14fallback_error5Error11description
FN:36,_RNvXst_NtCsk9ngD3d3DdK_17ultraplonk_no_std3keyNtB5_20VerificationKeyErrorNtNtCsi5jKAOe9cvS_5snafu14fallback_error5Error5cause
FN:36,_RNvXst_NtCsk9ngD3d3DdK_17ultraplonk_no_std3keyNtB5_20VerificationKeyErrorNtNtCsi5jKAOe9cvS_5snafu14fallback_error5Error6source
FN:36,_RNvXsu_NtCsk9ngD3d3DdK_17ultraplonk_no_std3keyNtB5_20VerificationKeyErrorNtCsi5jKAOe9cvS_5snafu11ErrorCompat9backtrace
FN:420,_RNCNvNtCsk9ngD3d3DdK_17ultraplonk_no_std3key8get_u2560B5_
FN:704,_RNCNvNtCsk9ngD3d3DdK_17ultraplonk_no_std3key8read_u320B5_
FN:107,_RNvMNtCs7j5G3H6G69x_17ultraplonk_no_std3keyNtB2_15CommitmentField3str
FN:135,_RNvMNtCs7j5G3H6G69x_17ultraplonk_no_std3keyNtB2_15CommitmentField8try_from
FN:418,_RNvNtCs7j5G3H6G69x_17ultraplonk_no_std3key8get_u256
FN:424,_RNvNtCs7j5G3H6G69x_17ultraplonk_no_std3key7get_u32
FN:435,_RNvNtCs7j5G3H6G69x_17ultraplonk_no_std3key8get_bool
FN:703,_RNvNtCs7j5G3H6G69x_17ultraplonk_no_std3key8read_u32
FN:708,_RNvNtCs7j5G3H6G69x_17ultraplonk_no_std3key9read_bool
FN:36,_RNvMs6_NtCs7j5G3H6G69x_17ultraplonk_no_std3keyNtB5_19BufferTooShortSnafu5build
FN:36,_RINvMs6_NtCs7j5G3H6G69x_17ultraplonk_no_std3keyNtB6_19BufferTooShortSnafu4failpEB8_
FN:36,_RNvXs7_NtCs7j5G3H6G69x_17ultraplonk_no_std3keyNtB5_19BufferTooShortSnafuINtCsi5jKAOe9cvS_5snafu9IntoErrorNtB5_20VerificationKeyErrorE10into_error
FN:36,_RNvMs8_NtCs7j5G3H6G69x_17ultraplonk_no_std3keyINtB5_23InvalidSliceLengthSnafuppE5buildB7_
FN:36,_RINvMs8_NtCs7j5G3H6G69x_17ultraplonk_no_std3keyINtB6_23InvalidSliceLengthSnafuppE4failpEB8_
FN:36,_RNvXININtCs7j5G3H6G69x_17ultraplonk_no_std3keys9_0ppEINtB5_23InvalidSliceLengthSnafuppEINtCsi5jKAOe9cvS_5snafu9IntoErrorNtB5_20VerificationKeyErrorE10into_errorB7_
FN:36,_RNvMsa_NtCs7j5G3H6G69x_17ultraplonk_no_std3keyINtB5_20PointNotOnCurveSnafupE5buildB7_
FN:36,_RINvMsa_NtCs7j5G3H6G69x_17ultraplonk_no_std3keyINtB6_20PointNotOnCurveSnafupE4failpEB8_
FN:36,_RNvXININtCs7j5G3H6G69x_17ultraplonk_no_std3keysb_0pEINtB5_20PointNotOnCurveSnafupEINtCsi5jKAOe9cvS_5snafu9IntoErrorNtB5_20VerificationKeyErrorE10into_errorB7_
FN:36,_RNvMsc_NtCs7j5G3H6G69x_17ultraplonk_no_std3keyNtB5_23InvalidCircuitTypeSnafu5build
FN:36,_RINvMsc_NtCs7j5G3H6G69x_17ultraplonk_no_std3keyNtB6_23InvalidCircuitTypeSnafu4failpEB8_
FN:36,_RNvXsd_NtCs7j5G3H6G69x_17ultraplonk_no_std3keyNtB5_23InvalidCircuitTypeSnafuINtCsi5jKAOe9cvS_5snafu9IntoErrorNtB5_20VerificationKeyErrorE10into_error
FN:36,_RNvMse_NtCs7j5G3H6G69x_17ultraplonk_no_std3keyNtB5_23InvalidCircuitSizeSnafu5build
FN:36,_RINvMse_NtCs7j5G3H6G69x_17ultraplonk_no_std3keyNtB6_23InvalidCircuitSizeSnafu4failpEB8_
FN:36,_RNvXsf_NtCs7j5G3H6G69x_17ultraplonk_no_std3keyNtB5_23InvalidCircuitSizeSnafuINtCsi5jKAOe9cvS_5snafu9IntoErrorNtB5_20VerificationKeyErrorE10into_error
FN:36,_RNvMsg_NtCs7j5G3H6G69x_17ultraplonk_no_std3keyNtB5_32InvalidNumberOfPublicInputsSnafu5build
FN:36,_RINvMsg_NtCs7j5G3H6G69x_17ultraplonk_no_std3keyNtB6_32InvalidNumberOfPublicInputsSnafu4failpEB8_
FN:36,_RNvXsh_NtCs7j5G3H6G69x_17ultraplonk_no_std3keyNtB5_32InvalidNumberOfPublicInputsSnafuINtCsi5jKAOe9cvS_5snafu9IntoErrorNtB5_20VerificationKeyErrorE10into_error
FN:36,_RNvMsi_NtCs7j5G3H6G69x_17ultraplonk_no_std3keyINtB5_27InvalidCommitmentFieldSnafupE5buildB7_
FN:36,_RINvMsi_NtCs7j5G3H6G69x_17ultraplonk_no_std3keyINtB6_27InvalidCommitmentFieldSnafupE4failpEB8_
FN:36,_RNvXININtCs7j5G3H6G69x_17ultraplonk_no_std3keysj_0pEINtB5_27InvalidCommitmentFieldSnafupEINtCsi5jKAOe9cvS_5snafu9IntoErrorNtB5_20VerificationKeyErrorE10into_errorB7_
FN:36,_RNvMsk_NtCs7j5G3H6G69x_17ultraplonk_no_std3keyNtB5_29InvalidCommitmentsNumberSnafu5build
FN:36,_RINvMsk_NtCs7j5G3H6G69x_17ultraplonk_no_std3keyNtB6_29InvalidCommitmentsNumberSnafu4failpEB8_
FN:36,_RNvXsl_NtCs7j5G3H6G69x_17ultraplonk_no_std3keyNtB5_29InvalidCommitmentsNumberSnafuINtCsi5jKAOe9cvS_5snafu9IntoErrorNtB5_20VerificationKeyErrorE10into_error
FN:36,_RNvMsm_NtCs7j5G3H6G69x_17ultraplonk_no_std3keyNtB5_25InvalidCommitmentKeySnafu5build
FN:36,_RINvMsm_NtCs7j5G3H6G69x_17ultraplonk_no_std3keyNtB6_25InvalidCommitmentKeySnafu4failpEB8_
FN:36,_RNvXsn_NtCs7j5G3H6G69x_17ultraplonk_no_std3keyNtB5_25InvalidCommitmentKeySnafuINtCsi5jKAOe9cvS_5snafu9IntoErrorNtB5_20VerificationKeyErrorE10into_error
FN:36,_RNvMso_NtCs7j5G3H6G69x_17ultraplonk_no_std3keyINtB5_28UnexpectedCommitmentKeySnafuppE5buildB7_
FN:36,_RINvMso_NtCs7j5G3H6G69x_17ultraplonk_no_std3keyINtB6_28UnexpectedCommitmentKeySnafuppE4failpEB8_
FN:36,_RNvXININtCs7j5G3H6G69x_17ultraplonk_no_std3keysp_0ppEINtB5_28UnexpectedCommitmentKeySnafuppEINtCsi5jKAOe9cvS_5snafu9IntoErrorNtB5_20VerificationKeyErrorE10into_errorB7_
FN:36,_RNvMsq_NtCs7j5G3H6G69x_17ultraplonk_no_std3keyNtB5_26RecursionNotSupportedSnafu5build
FN:36,_RINvMsq_NtCs7j5G3H6G69x_17ultraplonk_no_std3keyNtB6_26RecursionNotSupportedSnafu4failpEB8_
FN:36,_RNvXsr_NtCs7j5G3H6G69x_17ultraplonk_no_std3keyNtB5_26RecursionNotSupportedSnafuINtCsi5jKAOe9cvS_5snafu9IntoErrorNtB5_20VerificationKeyErrorE10into_error
FN:36,_RNvXss_NtCs7j5G3H6G69x_17ultraplonk_no_std3keyNtB5_20VerificationKeyErrorNtNtCsiAVgAqkjXtQ_4core3fmt7Display3fmt
FN:36,_RNvXst_NtCs7j5G3H6G69x_17ultraplonk_no_std3keyNtB5_20VerificationKeyErrorNtNtCsi5jKAOe9cvS_5snafu14fallback_error5Error11description
FN:36,_RNvXst_NtCs7j5G3H6G69x_17ultraplonk_no_std3keyNtB5_20VerificationKeyErrorNtNtCsi5jKAOe9cvS_5snafu14fallback_error5Error5cause
FN:36,_RNvXst_NtCs7j5G3H6G69x_17ultraplonk_no_std3keyNtB5_20VerificationKeyErrorNtNtCsi5jKAOe9cvS_5snafu14fallback_error5Error6source
FN:36,_RNvXsu_NtCs7j5G3H6G69x_17ultraplonk_no_std3keyNtB5_20VerificationKeyErrorNtCsi5jKAOe9cvS_5snafu11ErrorCompat9backtrace
FN:546,_RNvMs1_NtCs7j5G3H6G69x_17ultraplonk_no_std3keyINtB5_15VerificationKeypE8as_bytesB7_
FN:766,_RINvNtCs7j5G3H6G69x_17ultraplonk_no_std3key8write_g1pEB4_
FN:768,_RNCINvNtCs7j5G3H6G69x_17ultraplonk_no_std3key8write_g1pE0B6_
FN:777,_RNCINvNtCs7j5G3H6G69x_17ultraplonk_no_std3key8write_g1pEs_0B6_
FN:813,_RNvMNtNtCs7j5G3H6G69x_17ultraplonk_no_std3key6shouldNtB2_8valid_vk3get
FN:813,_RNvMNtNtCs7j5G3H6G69x_17ultraplonk_no_std3key6shouldNtB2_8valid_vk7default
FN:813,_RNvNtNtCs7j5G3H6G69x_17ultraplonk_no_std3key6should8valid_vk
FN:872,_RNvMs_NtNtCs7j5G3H6G69x_17ultraplonk_no_std3key6shouldNtB4_12valid_raw_vk3get
FN:872,_RNvMs_NtNtCs7j5G3H6G69x_17ultraplonk_no_std3key6shouldNtB4_12valid_raw_vk7default
FN:872,_RNvNtNtCs7j5G3H6G69x_17ultraplonk_no_std3key6should12valid_raw_vk
FN:978,_RNvNtNtCs7j5G3H6G69x_17ultraplonk_no_std3key6shoulds_33deserialize_serialize_solidity_vk
FN:978,_RNvNvNtNtCs7j5G3H6G69x_17ultraplonk_no_std3key6shoulds_33deserialize_serialize_solidity_vk33deserialize_serialize_solidity_vk
FN:986,_RNvNtNtCs7j5G3H6G69x_17ultraplonk_no_std3key6shoulds_28deserialize_serialize_raw_vk
FN:986,_RNvNvNtNtCs7j5G3H6G69x_17ultraplonk_no_std3key6shoulds_28deserialize_serialize_raw_vk28deserialize_serialize_raw_vk
FN:198,_RNvMs_NtCs7j5G3H6G69x_17ultraplonk_no_std3keyINtB4_15VerificationKeyNtNtB6_15curvehooks_impl14CurveHooksImplE17as_solidity_bytesB6_
FN:255,_RNvMs_NtCs7j5G3H6G69x_17ultraplonk_no_std3keyINtB4_15VerificationKeyNtNtB6_15curvehooks_impl14CurveHooksImplE23try_from_solidity_bytesB6_
FN:278,_RNCNvMs_NtCs7j5G3H6G69x_17ultraplonk_no_std3keyINtB6_15VerificationKeyNtNtB8_15curvehooks_impl14CurveHooksImplE23try_from_solidity_bytes0B8_
FN:281,_RNCNvMs_NtCs7j5G3H6G69x_17ultraplonk_no_std3keyINtB6_15VerificationKeyNtNtB8_15curvehooks_impl14CurveHooksImplE23try_from_solidity_bytess_0B8_
FN:285,_RNCNvMs_NtCs7j5G3H6G69x_17ultraplonk_no_std3keyINtB6_15VerificationKeyNtNtB8_15curvehooks_impl14CurveHooksImplE23try_from_solidity_bytess0_0B8_
FN:289,_RNCNvMs_NtCs7j5G3H6G69x_17ultraplonk_no_std3keyINtB6_15VerificationKeyNtNtB8_15curvehooks_impl14CurveHooksImplE23try_from_solidity_bytess1_0B8_
FN:293,_RNCNvMs_NtCs7j5G3H6G69x_17ultraplonk_no_std3keyINtB6_15VerificationKeyNtNtB8_15curvehooks_impl14CurveHooksImplE23try_from_solidity_bytess2_0B8_
FN:297,_RNCNvMs_NtCs7j5G3H6G69x_17ultraplonk_no_std3keyINtB6_15VerificationKeyNtNtB8_15curvehooks_impl14CurveHooksImplE23try_from_solidity_bytess3_0B8_
FN:301,_RNCNvMs_NtCs7j5G3H6G69x_17ultraplonk_no_std3keyINtB6_15VerificationKeyNtNtB8_15curvehooks_impl14CurveHooksImplE23try_from_solidity_bytess4_0B8_
FN:305,_RNCNvMs_NtCs7j5G3H6G69x_17ultraplonk_no_std3keyINtB6_15VerificationKeyNtNtB8_15curvehooks_impl14CurveHooksImplE23try_from_solidity_bytess5_0B8_
FN:309,_RNCNvMs_NtCs7j5G3H6G69x_17ultraplonk_no_std3keyINtB6_15VerificationKeyNtNtB8_15curvehooks_impl14CurveHooksImplE23try_from_solidity_bytess6_0B8_
FN:313,_RNCNvMs_NtCs7j5G3H6G69x_17ultraplonk_no_std3keyINtB6_15VerificationKeyNtNtB8_15curvehooks_impl14CurveHooksImplE23try_from_solidity_bytess7_0B8_
FN:317,_RNCNvMs_NtCs7j5G3H6G69x_17ultraplonk_no_std3keyINtB6_15VerificationKeyNtNtB8_15curvehooks_impl14CurveHooksImplE23try_from_solidity_bytess8_0B8_
FN:321,_RNCNvMs_NtCs7j5G3H6G69x_17ultraplonk_no_std3keyINtB6_15VerificationKeyNtNtB8_15curvehooks_impl14CurveHooksImplE23try_from_solidity_bytess9_0B8_
FN:325,_RNCNvMs_NtCs7j5G3H6G69x_17ultraplonk_no_std3keyINtB6_15VerificationKeyNtNtB8_15curvehooks_impl14CurveHooksImplE23try_from_solidity_bytessa_0B8_
FN:329,_RNCNvMs_NtCs7j5G3H6G69x_17ultraplonk_no_std3keyINtB6_15VerificationKeyNtNtB8_15curvehooks_impl14CurveHooksImplE23try_from_solidity_bytessb_0B8_
FN:333,_RNCNvMs_NtCs7j5G3H6G69x_17ultraplonk_no_std3keyINtB6_15VerificationKeyNtNtB8_15curvehooks_impl14CurveHooksImplE23try_from_solidity_bytessc_0B8_
FN:337,_RNCNvMs_NtCs7j5G3H6G69x_17ultraplonk_no_std3keyINtB6_15VerificationKeyNtNtB8_15curvehooks_impl14CurveHooksImplE23try_from_solidity_bytessd_0B8_
FN:341,_RNCNvMs_NtCs7j5G3H6G69x_17ultraplonk_no_std3keyINtB6_15VerificationKeyNtNtB8_15curvehooks_impl14CurveHooksImplE23try_from_solidity_bytesse_0B8_
FN:345,_RNCNvMs_NtCs7j5G3H6G69x_17ultraplonk_no_std3keyINtB6_15VerificationKeyNtNtB8_15curvehooks_impl14CurveHooksImplE23try_from_solidity_bytessf_0B8_
FN:349,_RNCNvMs_NtCs7j5G3H6G69x_17ultraplonk_no_std3keyINtB6_15VerificationKeyNtNtB8_15curvehooks_impl14CurveHooksImplE23try_from_solidity_bytessg_0B8_
FN:353,_RNCNvMs_NtCs7j5G3H6G69x_17ultraplonk_no_std3keyINtB6_15VerificationKeyNtNtB8_15curvehooks_impl14CurveHooksImplE23try_from_solidity_bytessh_0B8_
FN:357,_RNCNvMs_NtCs7j5G3H6G69x_17ultraplonk_no_std3keyINtB6_15VerificationKeyNtNtB8_15curvehooks_impl14CurveHooksImplE23try_from_solidity_bytessi_0B8_
FN:361,_RNCNvMs_NtCs7j5G3H6G69x_17ultraplonk_no_std3keyINtB6_15VerificationKeyNtNtB8_15curvehooks_impl14CurveHooksImplE23try_from_solidity_bytessj_0B8_
FN:365,_RNCNvMs_NtCs7j5G3H6G69x_17ultraplonk_no_std3keyINtB6_15VerificationKeyNtNtB8_15curvehooks_impl14CurveHooksImplE23try_from_solidity_bytessk_0B8_
FN:369,_RNCNvMs_NtCs7j5G3H6G69x_17ultraplonk_no_std3keyINtB6_15VerificationKeyNtNtB8_15curvehooks_impl14CurveHooksImplE23try_from_solidity_bytessl_0B8_
FN:374,_RNCNvMs_NtCs7j5G3H6G69x_17ultraplonk_no_std3keyINtB6_15VerificationKeyNtNtB8_15curvehooks_impl14CurveHooksImplE23try_from_solidity_bytessm_0B8_
FN:380,_RNCNvMs_NtCs7j5G3H6G69x_17ultraplonk_no_std3keyINtB6_15VerificationKeyNtNtB8_15curvehooks_impl14CurveHooksImplE23try_from_solidity_bytessn_0B8_
FN:420,_RNCNvNtCs7j5G3H6G69x_17ultraplonk_no_std3key8get_u2560B5_
FN:446,_RINvNtCs7j5G3H6G69x_17ultraplonk_no_std3key6get_g1NtNtB4_15curvehooks_impl14CurveHooksImplEB4_
FN:504,_RNvXs0_NtCs7j5G3H6G69x_17ultraplonk_no_std3keyINtB5_23PreparedVerificationKeyNtNtB7_15curvehooks_impl14CurveHooksImplEINtNtCsiAVgAqkjXtQ_4core7convert4FromRINtB5_15VerificationKeyB1d_EE4fromB7_
FN:592,_RNvXs2_NtCs7j5G3H6G69x_17ultraplonk_no_std3keyINtB5_15VerificationKeyNtNtB7_15curvehooks_impl14CurveHooksImplEINtNtCsiAVgAqkjXtQ_4core7convert7TryFromRShE8try_fromB7_
FN:620,_RNCNvXs2_NtCs7j5G3H6G69x_17ultraplonk_no_std3keyINtB7_15VerificationKeyNtNtB9_15curvehooks_impl14CurveHooksImplEINtNtCsiAVgAqkjXtQ_4core7convert7TryFromRShE8try_from0B9_
FN:704,_RNCNvNtCs7j5G3H6G69x_17ultraplonk_no_std3key8read_u320B5_
FN:716,_RINvNtCs7j5G3H6G69x_17ultraplonk_no_std3key15read_commitmentNtNtB4_15curvehooks_impl14CurveHooksImplEB4_
FN:729,_RNCINvNtCs7j5G3H6G69x_17ultraplonk_no_std3key15read_commitmentNtNtB6_15curvehooks_impl14CurveHooksImplE0B6_
FN:732,_RNCINvNtCs7j5G3H6G69x_17ultraplonk_no_std3key15read_commitmentNtNtB6_15curvehooks_impl14CurveHooksImplEs_0B6_
FN:747,_RINvNtCs7j5G3H6G69x_17ultraplonk_no_std3key7read_g1NtNtB4_15curvehooks_impl14CurveHooksImplEB4_
FN:751,_RNCINvNtCs7j5G3H6G69x_17ultraplonk_no_std3key7read_g1NtNtB6_15curvehooks_impl14CurveHooksImplE0B6_
FN:790,_RINvNtCs7j5G3H6G69x_17ultraplonk_no_std3key7read_g2NtNtB4_15curvehooks_impl14CurveHooksImplEB4_
FN:997,_RNvNtNtNtCs7j5G3H6G69x_17ultraplonk_no_std3key6should6rejects_24a_vk_from_a_short_buffer
FN:997,_RNvNvNtNtNtCs7j5G3H6G69x_17ultraplonk_no_std3key6should6rejects_24a_vk_from_a_short_buffer24a_vk_from_a_short_buffer
FN:1008,_RNvNtNtNtCs7j5G3H6G69x_17ultraplonk_no_std3key6should6rejects_28a_raw_vk_from_a_short_buffer
FN:1008,_RNvNvNtNtNtCs7j5G3H6G69x_17ultraplonk_no_std3key6should6rejects_28a_raw_vk_from_a_short_buffer28a_raw_vk_from_a_short_buffer
FN:1018,_RNvNtNtNtCs7j5G3H6G69x_17ultraplonk_no_std3key6should6rejects_30a_vk_with_invalid_circuit_type
FN:1018,_RNvNvNtNtNtCs7j5G3H6G69x_17ultraplonk_no_std3key6should6rejects_30a_vk_with_invalid_circuit_type30a_vk_with_invalid_circuit_type
FN:1031,_RNvNtNtNtCs7j5G3H6G69x_17ultraplonk_no_std3key6should6rejects_34a_raw_vk_with_invalid_circuit_type
FN:1031,_RNvNvNtNtNtCs7j5G3H6G69x_17ultraplonk_no_std3key6should6rejects_34a_raw_vk_with_invalid_circuit_type34a_raw_vk_with_invalid_circuit_type
FN:1043,_RNvNtNtNtCs7j5G3H6G69x_17ultraplonk_no_std3key6should6rejects_30a_vk_with_invalid_circuit_size
FN:1043,_RNvNvNtNtNtCs7j5G3H6G69x_17ultraplonk_no_std3key6should6rejects_30a_vk_with_invalid_circuit_size30a_vk_with_invalid_circuit_size
FN:1056,_RNvNtNtNtCs7j5G3H6G69x_17ultraplonk_no_std3key6should6rejects_33a_vk_with_invalid_circuit_size_v2
FN:1056,_RNvNvNtNtNtCs7j5G3H6G69x_17ultraplonk_no_std3key6should6rejects_33a_vk_with_invalid_circuit_size_v233a_vk_with_invalid_circuit_size_v2
FN:1070,_RNvNtNtNtCs7j5G3H6G69x_17ultraplonk_no_std3key6should6rejects_34a_raw_vk_with_invalid_circuit_size
FN:1070,_RNvNvNtNtNtCs7j5G3H6G69x_17ultraplonk_no_std3key6should6rejects_34a_raw_vk_with_invalid_circuit_size34a_raw_vk_with_invalid_circuit_size
FN:1082,_RNvNtNtNtCs7j5G3H6G69x_17ultraplonk_no_std3key6should6rejects_36a_vk_with_invalid_commitments_number
FN:1082,_RNvNvNtNtNtCs7j5G3H6G69x_17ultraplonk_no_std3key6should6rejects_36a_vk_with_invalid_commitments_number36a_vk_with_invalid_commitments_number
FN:1095,_RNvNtNtNtCs7j5G3H6G69x_17ultraplonk_no_std3key6should6rejects_40a_raw_vk_with_invalid_commitments_number
FN:1095,_RNvNvNtNtNtCs7j5G3H6G69x_17ultraplonk_no_std3key6should6rejects_40a_raw_vk_with_invalid_commitments_number40a_raw_vk_with_invalid_commitments_number
FN:1107,_RNvNtNtNtCs7j5G3H6G69x_17ultraplonk_no_std3key6should6rejects_30a_vk_with_a_point_not_on_curve
FN:1107,_RNvNvNtNtNtCs7j5G3H6G69x_17ultraplonk_no_std3key6should6rejects_30a_vk_with_a_point_not_on_curve30a_vk_with_a_point_not_on_curve
FN:1120,_RNvNtNtNtCs7j5G3H6G69x_17ultraplonk_no_std3key6should6rejects_34a_raw_vk_with_a_point_not_on_curve
FN:1120,_RNvNvNtNtNtCs7j5G3H6G69x_17ultraplonk_no_std3key6should6rejects_34a_raw_vk_with_a_point_not_on_curve34a_raw_vk_with_a_point_not_on_curve
FN:1132,_RNvNtNtNtCs7j5G3H6G69x_17ultraplonk_no_std3key6should6rejects_33a_vk_containing_a_recursive_proof
FN:1132,_RNvNvNtNtNtCs7j5G3H6G69x_17ultraplonk_no_std3key6should6rejects_33a_vk_containing_a_recursive_proof33a_vk_containing_a_recursive_proof
FN:1145,_RNvNtNtNtCs7j5G3H6G69x_17ultraplonk_no_std3key6should6rejects_33a_vk_with_recursive_proof_indices
FN:1145,_RNvNvNtNtNtCs7j5G3H6G69x_17ultraplonk_no_std3key6should6rejects_33a_vk_with_recursive_proof_indices33a_vk_with_recursive_proof_indices
FN:1158,_RNvNtNtNtCs7j5G3H6G69x_17ultraplonk_no_std3key6should6rejects_36a_vk_with_recursive_proof_indices_v2
FN:1158,_RNvNvNtNtNtCs7j5G3H6G69x_17ultraplonk_no_std3key6should6rejects_36a_vk_with_recursive_proof_indices_v236a_vk_with_recursive_proof_indices_v2
FN:1171,_RNvNtNtNtCs7j5G3H6G69x_17ultraplonk_no_std3key6should6rejects_37a_raw_vk_containing_a_recursive_proof
FN:1171,_RNvNvNtNtNtCs7j5G3H6G69x_17ultraplonk_no_std3key6should6rejects_37a_raw_vk_containing_a_recursive_proof37a_raw_vk_containing_a_recursive_proof
FN:1183,_RNvNtNtNtCs7j5G3H6G69x_17ultraplonk_no_std3key6should6rejects_30a_raw_vk_with_an_invalid_field
FN:1183,_RNvNvNtNtNtCs7j5G3H6G69x_17ultraplonk_no_std3key6should6rejects_30a_raw_vk_with_an_invalid_field30a_raw_vk_with_an_invalid_field
FN:1197,_RNvNtNtNtCs7j5G3H6G69x_17ultraplonk_no_std3key6should6rejects_39a_raw_vk_with_an_invalid_commitment_key
FN:1197,_RNvNvNtNtNtCs7j5G3H6G69x_17ultraplonk_no_std3key6should6rejects_39a_raw_vk_with_an_invalid_commitment_key39a_raw_vk_with_an_invalid_commitment_key
FN:1209,_RNvNtNtNtCs7j5G3H6G69x_17ultraplonk_no_std3key6should6rejects_42a_raw_vk_with_an_invalid_commitment_key_v2
FN:1209,_RNvNvNtNtNtCs7j5G3H6G69x_17ultraplonk_no_std3key6should6rejects_42a_raw_vk_with_an_invalid_commitment_key_v242a_raw_vk_with_an_invalid_commitment_key_v2
FN:1221,_RNvNtNtNtCs7j5G3H6G69x_17ultraplonk_no_std3key6should6rejects_39a_raw_vk_with_unexpected_commitment_key
FN:1221,_RNvNvNtNtNtCs7j5G3H6G69x_17ultraplonk_no_std3key6should6rejects_39a_raw_vk_with_unexpected_commitment_key39a_raw_vk_with_unexpected_commitment_key
FNDA:253,_RINvNtCsk9ngD3d3DdK_17ultraplonk_no_std3key15read_commitmentNtNtB4_15curvehooks_impl14CurveHooksImplECska6KjoqsFU2_8noir_cli
FNDA:253,_RINvNtCsk9ngD3d3DdK_17ultraplonk_no_std3key6get_g1NtNtB4_15curvehooks_impl14CurveHooksImplECska6KjoqsFU2_8noir_cli
FNDA:253,_RINvNtCsk9ngD3d3DdK_17ultraplonk_no_std3key7read_g1NtNtB4_15curvehooks_impl14CurveHooksImplECska6KjoqsFU2_8noir_cli
FNDA:11,_RINvNtCsk9ngD3d3DdK_17ultraplonk_no_std3key7read_g2NtNtB4_15curvehooks_impl14CurveHooksImplECska6KjoqsFU2_8noir_cli
FNDA:0,_RNCINvNtCsk9ngD3d3DdK_17ultraplonk_no_std3key15read_commitmentNtNtB6_15curvehooks_impl14CurveHooksImplE0Cska6KjoqsFU2_8noir_cli
FNDA:0,_RNCINvNtCsk9ngD3d3DdK_17ultraplonk_no_std3key15read_commitmentNtNtB6_15curvehooks_impl14CurveHooksImplEs_0Cska6KjoqsFU2_8noir_cli
FNDA:0,_RNCINvNtCsk9ngD3d3DdK_17ultraplonk_no_std3key7read_g1NtNtB6_15curvehooks_impl14CurveHooksImplE0Cska6KjoqsFU2_8noir_cli
FNDA:0,_RNCNvMs_NtCsk9ngD3d3DdK_17ultraplonk_no_std3keyINtB6_15VerificationKeyNtNtB8_15curvehooks_impl14CurveHooksImplE23try_from_solidity_bytes0Cska6KjoqsFU2_8noir_cli
FNDA:0,_RNCNvMs_NtCsk9ngD3d3DdK_17ultraplonk_no_std3keyINtB6_15VerificationKeyNtNtB8_15curvehooks_impl14CurveHooksImplE23try_from_solidity_bytess0_0Cska6KjoqsFU2_8noir_cli
FNDA:0,_RNCNvMs_NtCsk9ngD3d3DdK_17ultraplonk_no_std3keyINtB6_15VerificationKeyNtNtB8_15curvehooks_impl14CurveHooksImplE23try_from_solidity_bytess1_0Cska6KjoqsFU2_8noir_cli
FNDA:0,_RNCNvMs_NtCsk9ngD3d3DdK_17ultraplonk_no_std3keyINtB6_15VerificationKeyNtNtB8_15curvehooks_impl14CurveHooksImplE23try_from_solidity_bytess2_0Cska6KjoqsFU2_8noir_cli
FNDA:0,_RNCNvMs_NtCsk9ngD3d3DdK_17ultraplonk_no_std3keyINtB6_15VerificationKeyNtNtB8_15curvehooks_impl14CurveHooksImplE23try_from_solidity_bytess3_0Cska6KjoqsFU2_8noir_cli
FNDA:0,_RNCNvMs_NtCsk9ngD3d3DdK_17ultraplonk_no_std3keyINtB6_15VerificationKeyNtNtB8_15curvehooks_impl14CurveHooksImplE23try_from_solidity_bytess4_0Cska6KjoqsFU2_8noir_cli
FNDA:0,_RNCNvMs_NtCsk9ngD3d3DdK_17ultraplonk_no_std3keyINtB6_15VerificationKeyNtNtB8_15curvehooks_impl14CurveHooksImplE23try_from_solidity_bytess5_0Cska6KjoqsFU2_8noir_cli
FNDA:0,_RNCNvMs_NtCsk9ngD3d3DdK_17ultraplonk_no_std3keyINtB6_15VerificationKeyNtNtB8_15curvehooks_impl14CurveHooksImplE23try_from_solidity_bytess6_0Cska6KjoqsFU2_8noir_cli
FNDA:0,_RNCNvMs_NtCsk9ngD3d3DdK_17ultraplonk_no_std3keyINtB6_15VerificationKeyNtNtB8_15curvehooks_impl14CurveHooksImplE23try_from_solidity_bytess7_0Cska6KjoqsFU2_8noir_cli
FNDA:0,_RNCNvMs_NtCsk9ngD3d3DdK_17ultraplonk_no_std3keyINtB6_15VerificationKeyNtNtB8_15curvehooks_impl14CurveHooksImplE23try_from_solidity_bytess8_0Cska6KjoqsFU2_8noir_cli
FNDA:0,_RNCNvMs_NtCsk9ngD3d3DdK_17ultraplonk_no_std3keyINtB6_15VerificationKeyNtNtB8_15curvehooks_impl14CurveHooksImplE23try_from_solidity_bytess9_0Cska6KjoqsFU2_8noir_cli
FNDA:0,_RNCNvMs_NtCsk9ngD3d3DdK_17ultraplonk_no_std3keyINtB6_15VerificationKeyNtNtB8_15curvehooks_impl14CurveHooksImplE23try_from_solidity_bytess_0Cska6KjoqsFU2_8noir_cli
FNDA:0,_RNCNvMs_NtCsk9ngD3d3DdK_17ultraplonk_no_std3keyINtB6_15VerificationKeyNtNtB8_15curvehooks_impl14CurveHooksImplE23try_from_solidity_bytessa_0Cska6KjoqsFU2_8noir_cli
FNDA:0,_RNCNvMs_NtCsk9ngD3d3DdK_17ultraplonk_no_std3keyINtB6_15VerificationKeyNtNtB8_15curvehooks_impl14CurveHooksImplE23try_from_solidity_bytessb_0Cska6KjoqsFU2_8noir_cli
FNDA:0,_RNCNvMs_NtCsk9ngD3d3DdK_17ultraplonk_no_std3keyINtB6_15VerificationKeyNtNtB8_15curvehooks_impl14CurveHooksImplE23try_from_solidity_bytessc_0Cska6KjoqsFU2_8noir_cli
FNDA:0,_RNCNvMs_NtCsk9ngD3d3DdK_17ultraplonk_no_std3keyINtB6_15VerificationKeyNtNtB8_15curvehooks_impl14CurveHooksImplE23try_from_solidity_bytessd_0Cska6KjoqsFU2_8noir_cli
FNDA:0,_RNCNvMs_NtCsk9ngD3d3DdK_17ultraplonk_no_std3keyINtB6_15VerificationKeyNtNtB8_15curvehooks_impl14CurveHooksImplE23try_from_solidity_bytesse_0Cska6KjoqsFU2_8noir_cli
FNDA:0,_RNCNvMs_NtCsk9ngD3d3DdK_17ultraplonk_no_std3keyINtB6_15VerificationKeyNtNtB8_15curvehooks_impl14CurveHooksImplE23try_from_solidity_bytessf_0Cska6KjoqsFU2_8noir_cli
FNDA:0,_RNCNvMs_NtCsk9ngD3d3DdK_17ultraplonk_no_std3keyINtB6_15VerificationKeyNtNtB8_15curvehooks_impl14CurveHooksImplE23try_from_solidity_bytessg_0Cska6KjoqsFU2_8noir_cli
FNDA:0,_RNCNvMs_NtCsk9ngD3d3DdK_17ultraplonk_no_std3keyINtB6_15VerificationKeyNtNtB8_15curvehooks_impl14CurveHooksImplE23try_from_solidity_bytessh_0Cska6KjoqsFU2_8noir_cli
FNDA:0,_RNCNvMs_NtCsk9ngD3d3DdK_17ultraplonk_no_std3keyINtB6_15VerificationKeyNtNtB8_15curvehooks_impl14CurveHooksImplE23try_from_solidity_bytessi_0Cska6KjoqsFU2_8noir_cli
FNDA:0,_RNCNvMs_NtCsk9ngD3d3DdK_17ultraplonk_no_std3keyINtB6_15VerificationKeyNtNtB8_15curvehooks_impl14CurveHooksImplE23try_from_solidity_bytessj_0Cska6KjoqsFU2_8noir_cli
FNDA:0,_RNCNvMs_NtCsk9ngD3d3DdK_17ultraplonk_no_std3keyINtB6_15VerificationKeyNtNtB8_15curvehooks_impl14CurveHooksImplE23try_from_solidity_bytessk_0Cska6KjoqsFU2_8noir_cli
FNDA:0,_RNCNvMs_NtCsk9ngD3d3DdK_17ultraplonk_no_std3keyINtB6_15VerificationKeyNtNtB8_15curvehooks_impl14CurveHooksImplE23try_from_solidity_bytessl_0Cska6KjoqsFU2_8noir_cli
FNDA:0,_RNCNvMs_NtCsk9ngD3d3DdK_17ultraplonk_no_std3keyINtB6_15VerificationKeyNtNtB8_15curvehooks_impl14CurveHooksImplE23try_from_solidity_bytessm_0Cska6KjoqsFU2_8noir_cli
FNDA:0,_RNCNvMs_NtCsk9ngD3d3DdK_17ultraplonk_no_std3keyINtB6_15VerificationKeyNtNtB8_15curvehooks_impl14CurveHooksImplE23try_from_solidity_bytessn_0Cska6KjoqsFU2_8noir_cli
FNDA:0,_RNCNvXs2_NtCsk9ngD3d3DdK_17ultraplonk_no_std3keyINtB7_15VerificationKeyNtNtB9_15curvehooks_impl14CurveHooksImplEINtNtCsiAVgAqkjXtQ_4core7convert7TryFromRShE8try_from0Cska6KjoqsFU2_8noir_cli
FNDA:11,_RNvMs_NtCsk9ngD3d3DdK_17ultraplonk_no_std3keyINtB4_15VerificationKeyNtNtB6_15curvehooks_impl14CurveHooksImplE17as_solidity_bytesCska6KjoqsFU2_8noir_cli
FNDA:11,_RNvMs_NtCsk9ngD3d3DdK_17ultraplonk_no_std3keyINtB4_15VerificationKeyNtNtB6_15curvehooks_impl14CurveHooksImplE23try_from_solidity_bytesCska6KjoqsFU2_8noir_cli
FNDA:11,_RNvXs0_NtCsk9ngD3d3DdK_17ultraplonk_no_std3keyINtB5_23PreparedVerificationKeyNtNtB7_15curvehooks_impl14CurveHooksImplEINtNtCsiAVgAqkjXtQ_4core7convert4FromRINtB5_15VerificationKeyB1d_EE4fromCska6KjoqsFU2_8noir_cli
FNDA:11,_RNvXs2_NtCsk9ngD3d3DdK_17ultraplonk_no_std3keyINtB5_15VerificationKeyNtNtB7_15curvehooks_impl14CurveHooksImplEINtNtCsiAVgAqkjXtQ_4core7convert7TryFromRShE8try_fromCska6KjoqsFU2_8noir_cli
FNDA:0,_RNvMs6_NtCsk9ngD3d3DdK_17ultraplonk_no_std3keyNtB5_19BufferTooShortSnafu5build
FNDA:0,_RINvMs6_NtCsk9ngD3d3DdK_17ultraplonk_no_std3keyNtB6_19BufferTooShortSnafu4failpEB8_
FNDA:0,_RNvMs8_NtCsk9ngD3d3DdK_17ultraplonk_no_std3keyINtB5_23InvalidSliceLengthSnafuppE5buildB7_
FNDA:0,_RINvMs8_NtCsk9ngD3d3DdK_17ultraplonk_no_std3keyINtB6_23InvalidSliceLengthSnafuppE4failpEB8_
FNDA:0,_RNvXININtCsk9ngD3d3DdK_17ultraplonk_no_std3keys9_0ppEINtB5_23InvalidSliceLengthSnafuppEINtCsi5jKAOe9cvS_5snafu9IntoErrorNtB5_20VerificationKeyErrorE10into_errorB7_
FNDA:0,_RNvMsa_NtCsk9ngD3d3DdK_17ultraplonk_no_std3keyINtB5_20PointNotOnCurveSnafupE5buildB7_
FNDA:0,_RINvMsa_NtCsk9ngD3d3DdK_17ultraplonk_no_std3keyINtB6_20PointNotOnCurveSnafupE4failpEB8_
FNDA:0,_RNvXININtCsk9ngD3d3DdK_17ultraplonk_no_std3keysb_0pEINtB5_20PointNotOnCurveSnafupEINtCsi5jKAOe9cvS_5snafu9IntoErrorNtB5_20VerificationKeyErrorE10into_errorB7_
FNDA:0,_RNvMsc_NtCsk9ngD3d3DdK_17ultraplonk_no_std3keyNtB5_23InvalidCircuitTypeSnafu5build
FNDA:0,_RINvMsc_NtCsk9ngD3d3DdK_17ultraplonk_no_std3keyNtB6_23InvalidCircuitTypeSnafu4failpEB8_
FNDA:0,_RNvMse_NtCsk9ngD3d3DdK_17ultraplonk_no_std3keyNtB5_23InvalidCircuitSizeSnafu5build
FNDA:0,_RINvMse_NtCsk9ngD3d3DdK_17ultraplonk_no_std3keyNtB6_23InvalidCircuitSizeSnafu4failpEB8_
FNDA:0,_RNvMsg_NtCsk9ngD3d3DdK_17ultraplonk_no_std3keyNtB5_32InvalidNumberOfPublicInputsSnafu5build
FNDA:0,_RINvMsg_NtCsk9ngD3d3DdK_17ultraplonk_no_std3keyNtB6_32InvalidNumberOfPublicInputsSnafu4failpEB8_
FNDA:0,_RNvMsi_NtCsk9ngD3d3DdK_17ultraplonk_no_std3keyINtB5_27InvalidCommitmentFieldSnafupE5buildB7_
FNDA:0,_RINvMsi_NtCsk9ngD3d3DdK_17ultraplonk_no_std3keyINtB6_27InvalidCommitmentFieldSnafupE4failpEB8_
FNDA:0,_RNvXININtCsk9ngD3d3DdK_17ultraplonk_no_std3keysj_0pEINtB5_27InvalidCommitmentFieldSnafupEINtCsi5jKAOe9cvS_5snafu9IntoErrorNtB5_20VerificationKeyErrorE10into_errorB7_
FNDA:0,_RNvMsk_NtCsk9ngD3d3DdK_17ultraplonk_no_std3keyNtB5_29InvalidCommitmentsNumberSnafu5build
FNDA:0,_RINvMsk_NtCsk9ngD3d3DdK_17ultraplonk_no_std3keyNtB6_29InvalidCommitmentsNumberSnafu4failpEB8_
FNDA:0,_RNvMsm_NtCsk9ngD3d3DdK_17ultraplonk_no_std3keyNtB5_25InvalidCommitmentKeySnafu5build
FNDA:0,_RINvMsm_NtCsk9ngD3d3DdK_17ultraplonk_no_std3keyNtB6_25InvalidCommitmentKeySnafu4failpEB8_
FNDA:0,_RNvMso_NtCsk9ngD3d3DdK_17ultraplonk_no_std3keyINtB5_28UnexpectedCommitmentKeySnafuppE5buildB7_
FNDA:0,_RINvMso_NtCsk9ngD3d3DdK_17ultraplonk_no_std3keyINtB6_28UnexpectedCommitmentKeySnafuppE4failpEB8_
FNDA:0,_RNvXININtCsk9ngD3d3DdK_17ultraplonk_no_std3keysp_0ppEINtB5_28UnexpectedCommitmentKeySnafuppEINtCsi5jKAOe9cvS_5snafu9IntoErrorNtB5_20VerificationKeyErrorE10into_errorB7_
FNDA:0,_RNvMsq_NtCsk9ngD3d3DdK_17ultraplonk_no_std3keyNtB5_26RecursionNotSupportedSnafu5build
FNDA:0,_RINvMsq_NtCsk9ngD3d3DdK_17ultraplonk_no_std3keyNtB6_26RecursionNotSupportedSnafu4failpEB8_
FNDA:0,_RNvMs_NtCsk9ngD3d3DdK_17ultraplonk_no_std3keyINtB4_15VerificationKeypE17as_solidity_bytesB6_
FNDA:0,_RNvMs_NtCsk9ngD3d3DdK_17ultraplonk_no_std3keyINtB4_15VerificationKeypE23try_from_solidity_bytesB6_
FNDA:0,_RNCNvMs_NtCsk9ngD3d3DdK_17ultraplonk_no_std3keyINtB6_15VerificationKeypE23try_from_solidity_bytes0B8_
FNDA:0,_RNCNvMs_NtCsk9ngD3d3DdK_17ultraplonk_no_std3keyINtB6_15VerificationKeypE23try_from_solidity_bytess_0B8_
FNDA:0,_RNCNvMs_NtCsk9ngD3d3DdK_17ultraplonk_no_std3keyINtB6_15VerificationKeypE23try_from_solidity_bytess0_0B8_
FNDA:0,_RNCNvMs_NtCsk9ngD3d3DdK_17ultraplonk_no_std3keyINtB6_15VerificationKeypE23try_from_solidity_bytess1_0B8_
FNDA:0,_RNCNvMs_NtCsk9ngD3d3DdK_17ultraplonk_no_std3keyINtB6_15VerificationKeypE23try_from_solidity_bytess2_0B8_
FNDA:0,_RNCNvMs_NtCsk9ngD3d3DdK_17ultraplonk_no_std3keyINtB6_15VerificationKeypE23try_from_solidity_bytess3_0B8_
FNDA:0,_RNCNvMs_NtCsk9ngD3d3DdK_17ultraplonk_no_std3keyINtB6_15VerificationKeypE23try_from_solidity_bytess4_0B8_
FNDA:0,_RNCNvMs_NtCsk9ngD3d3DdK_17ultraplonk_no_std3keyINtB6_15VerificationKeypE23try_from_solidity_bytess5_0B8_
FNDA:0,_RNCNvMs_NtCsk9ngD3d3DdK_17ultraplonk_no_std3keyINtB6_15VerificationKeypE23try_from_solidity_bytess6_0B8_
FNDA:0,_RNCNvMs_NtCsk9ngD3d3DdK_17ultraplonk_no_std3keyINtB6_15VerificationKeypE23try_from_solidity_bytess7_0B8_
FNDA:0,_RNCNvMs_NtCsk9ngD3d3DdK_17ultraplonk_no_std3keyINtB6_15VerificationKeypE23try_from_solidity_bytess8_0B8_
FNDA:0,_RNCNvMs_NtCsk9ngD3d3DdK_17ultraplonk_no_std3keyINtB6_15VerificationKeypE23try_from_solidity_bytess9_0B8_
FNDA:0,_RNCNvMs_NtCsk9ngD3d3DdK_17ultraplonk_no_std3keyINtB6_15VerificationKeypE23try_from_solidity_bytessa_0B8_
FNDA:0,_RNCNvMs_NtCsk9ngD3d3DdK_17ultraplonk_no_std3keyINtB6_15VerificationKeypE23try_from_solidity_bytessb_0B8_
FNDA:0,_RNCNvMs_NtCsk9ngD3d3DdK_17ultraplonk_no_std3keyINtB6_15VerificationKeypE23try_from_solidity_bytessc_0B8_
FNDA:0,_RNCNvMs_NtCsk9ngD3d3DdK_17ultraplonk_no_std3keyINtB6_15VerificationKeypE23try_from_solidity_bytessd_0B8_
FNDA:0,_RNCNvMs_NtCsk9ngD3d3DdK_17ultraplonk_no_std3keyINtB6_15VerificationKeypE23try_from_solidity_bytesse_0B8_
FNDA:0,_RNCNvMs_NtCsk9ngD3d3DdK_17ultraplonk_no_std3keyINtB6_15VerificationKeypE23try_from_solidity_bytessf_0B8_
FNDA:0,_RNCNvMs_NtCsk9ngD3d3DdK_17ultraplonk_no_std3keyINtB6_15VerificationKeypE23try_from_solidity_bytessg_0B8_
FNDA:0,_RNCNvMs_NtCsk9ngD3d3DdK_17ultraplonk_no_std3keyINtB6_15VerificationKeypE23try_from_solidity_bytessh_0B8_
FNDA:0,_RNCNvMs_NtCsk9ngD3d3DdK_17ultraplonk_no_std3keyINtB6_15VerificationKeypE23try_from_solidity_bytessi_0B8_
FNDA:0,_RNCNvMs_NtCsk9ngD3d3DdK_17ultraplonk_no_std3keyINtB6_15VerificationKeypE23try_from_solidity_bytessj_0B8_
FNDA:0,_RNCNvMs_NtCsk9ngD3d3DdK_17ultraplonk_no_std3keyINtB6_15VerificationKeypE23try_from_solidity_bytessk_0B8_
FNDA:0,_RNCNvMs_NtCsk9ngD3d3DdK_17ultraplonk_no_std3keyINtB6_15VerificationKeypE23try_from_solidity_bytessl_0B8_
FNDA:0,_RNCNvMs_NtCsk9ngD3d3DdK_17ultraplonk_no_std3keyINtB6_15VerificationKeypE23try_from_solidity_bytessm_0B8_
FNDA:0,_RNCNvMs_NtCsk9ngD3d3DdK_17ultraplonk_no_std3keyINtB6_15VerificationKeypE23try_from_solidity_bytessn_0B8_
FNDA:0,_RINvNtCsk9ngD3d3DdK_17ultraplonk_no_std3key6get_g1pEB4_
FNDA:0,_RNvXININtCsk9ngD3d3DdK_17ultraplonk_no_std3keys0_0pEINtB5_23PreparedVerificationKeypEINtNtCsiAVgAqkjXtQ_4core7convert4FromRINtB5_15VerificationKeypEE4fromB7_
FNDA:0,_RNvMs1_NtCsk9ngD3d3DdK_17ultraplonk_no_std3keyINtB5_15VerificationKeypE8as_bytesB7_
FNDA:0,_RNvXININtCsk9ngD3d3DdK_17ultraplonk_no_std3keys2_0pEINtB5_15VerificationKeypEINtNtCsiAVgAqkjXtQ_4core7convert7TryFromRShE8try_fromB7_
FNDA:0,_RNCNvXININtCsk9ngD3d3DdK_17ultraplonk_no_std3keys2_0pEINtB7_15VerificationKeypEINtNtCsiAVgAqkjXtQ_4core7convert7TryFromRShE8try_from0B9_
FNDA:0,_RINvNtCsk9ngD3d3DdK_17ultraplonk_no_std3key15read_commitmentpEB4_
FNDA:0,_RNCINvNtCsk9ngD3d3DdK_17ultraplonk_no_std3key15read_commitmentpE0B6_
FNDA:0,_RNCINvNtCsk9ngD3d3DdK_17ultraplonk_no_std3key15read_commitmentpEs_0B6_
FNDA:0,_RINvNtCsk9ngD3d3DdK_17ultraplonk_no_std3key7read_g1pEB4_
FNDA:0,_RNCINvNtCsk9ngD3d3DdK_17ultraplonk_no_std3key7read_g1pE0B6_
FNDA:0,_RINvNtCsk9ngD3d3DdK_17ultraplonk_no_std3key8write_g1pEB4_
FNDA:0,_RNCINvNtCsk9ngD3d3DdK_17ultraplonk_no_std3key8write_g1pE0B6_
FNDA:0,_RNCINvNtCsk9ngD3d3DdK_17ultraplonk_no_std3key8write_g1pEs_0B6_
FNDA:0,_RINvNtCsk9ngD3d3DdK_17ultraplonk_no_std3key7read_g2pEB4_
FNDA:253,_RNvMNtCsk9ngD3d3DdK_17ultraplonk_no_std3keyNtB2_15CommitmentField3str
FNDA:253,_RNvMNtCsk9ngD3d3DdK_17ultraplonk_no_std3keyNtB2_15CommitmentField8try_from
FNDA:561,_RNvNtCsk9ngD3d3DdK_17ultraplonk_no_std3key8get_u256
FNDA:44,_RNvNtCsk9ngD3d3DdK_17ultraplonk_no_std3key7get_u32
FNDA:11,_RNvNtCsk9ngD3d3DdK_17ultraplonk_no_std3key8get_bool
FNDA:297,_RNvNtCsk9ngD3d3DdK_17ultraplonk_no_std3key8read_u32
FNDA:11,_RNvNtCsk9ngD3d3DdK_17ultraplonk_no_std3key9read_bool
FNDA:0,_RNvXs7_NtCsk9ngD3d3DdK_17ultraplonk_no_std3keyNtB5_19BufferTooShortSnafuINtCsi5jKAOe9cvS_5snafu9IntoErrorNtB5_20VerificationKeyErrorE10into_error
FNDA:0,_RNvXsd_NtCsk9ngD3d3DdK_17ultraplonk_no_std3keyNtB5_23InvalidCircuitTypeSnafuINtCsi5jKAOe9cvS_5snafu9IntoErrorNtB5_20VerificationKeyErrorE10into_error
FNDA:0,_RNvXsf_NtCsk9ngD3d3DdK_17ultraplonk_no_std3keyNtB5_23InvalidCircuitSizeSnafuINtCsi5jKAOe9cvS_5snafu9IntoErrorNtB5_20VerificationKeyErrorE10into_error
FNDA:0,_RNvXsh_NtCsk9ngD3d3DdK_17ultraplonk_no_std3keyNtB5_32InvalidNumberOfPublicInputsSnafuINtCsi5jKAOe9cvS_5snafu9IntoErrorNtB5_20VerificationKeyErrorE10into_error
FNDA:0,_RNvXsl_NtCsk9ngD3d3DdK_17ultraplonk_no_std3keyNtB5_29InvalidCommitmentsNumberSnafuINtCsi5jKAOe9cvS_5snafu9IntoErrorNtB5_20VerificationKeyErrorE10into_error
FNDA:0,_RNvXsn_NtCsk9ngD3d3DdK_17ultraplonk_no_std3keyNtB5_25InvalidCommitmentKeySnafuINtCsi5jKAOe9cvS_5snafu9IntoErrorNtB5_20VerificationKeyErrorE10into_error
FNDA:0,_RNvXsr_NtCsk9ngD3d3DdK_17ultraplonk_no_std3keyNtB5_26RecursionNotSupportedSnafuINtCsi5jKAOe9cvS_5snafu9IntoErrorNtB5_20VerificationKeyErrorE10into_error
FNDA:0,_RNvXss_NtCsk9ngD3d3DdK_17ultraplonk_no_std3keyNtB5_20VerificationKeyErrorNtNtCsiAVgAqkjXtQ_4core3fmt7Display3fmt
FNDA:0,_RNvXst_NtCsk9ngD3d3DdK_17ultraplonk_no_std3keyNtB5_20VerificationKeyErrorNtNtCsi5jKAOe9cvS_5snafu14fallback_error5Error11description
FNDA:0,_RNvXst_NtCsk9ngD3d3DdK_17ultraplonk_no_std3keyNtB5_20VerificationKeyErrorNtNtCsi5jKAOe9cvS_5snafu14fallback_error5Error5cause
FNDA:0,_RNvXst_NtCsk9ngD3d3DdK_17ultraplonk_no_std3keyNtB5_20VerificationKeyErrorNtNtCsi5jKAOe9cvS_5snafu14fallback_error5Error6source
FNDA:0,_RNvXsu_NtCsk9ngD3d3DdK_17ultraplonk_no_std3keyNtB5_20VerificationKeyErrorNtCsi5jKAOe9cvS_5snafu11ErrorCompat9backtrace
FNDA:0,_RNCNvNtCsk9ngD3d3DdK_17ultraplonk_no_std3key8get_u2560B5_
FNDA:0,_RNCNvNtCsk9ngD3d3DdK_17ultraplonk_no_std3key8read_u320B5_
FNDA:53,_RNvMNtCs7j5G3H6G69x_17ultraplonk_no_std3keyNtB2_15CommitmentField3str
FNDA:49,_RNvMNtCs7j5G3H6G69x_17ultraplonk_no_std3keyNtB2_15CommitmentField8try_from
FNDA:421,_RNvNtCs7j5G3H6G69x_17ultraplonk_no_std3key8get_u256
FNDA:43,_RNvNtCs7j5G3H6G69x_17ultraplonk_no_std3key7get_u32
FNDA:8,_RNvNtCs7j5G3H6G69x_17ultraplonk_no_std3key8get_bool
FNDA:86,_RNvNtCs7j5G3H6G69x_17ultraplonk_no_std3key8read_u32
FNDA:2,_RNvNtCs7j5G3H6G69x_17ultraplonk_no_std3key9read_bool
FNDA:0,_RNvMs6_NtCs7j5G3H6G69x_17ultraplonk_no_std3keyNtB5_19BufferTooShortSnafu5build
FNDA:0,_RINvMs6_NtCs7j5G3H6G69x_17ultraplonk_no_std3keyNtB6_19BufferTooShortSnafu4failpEB8_
FNDA:0,_RNvXs7_NtCs7j5G3H6G69x_17ultraplonk_no_std3keyNtB5_19BufferTooShortSnafuINtCsi5jKAOe9cvS_5snafu9IntoErrorNtB5_20VerificationKeyErrorE10into_error
FNDA:0,_RNvMs8_NtCs7j5G3H6G69x_17ultraplonk_no_std3keyINtB5_23InvalidSliceLengthSnafuppE5buildB7_
FNDA:0,_RINvMs8_NtCs7j5G3H6G69x_17ultraplonk_no_std3keyINtB6_23InvalidSliceLengthSnafuppE4failpEB8_
FNDA:0,_RNvXININtCs7j5G3H6G69x_17ultraplonk_no_std3keys9_0ppEINtB5_23InvalidSliceLengthSnafuppEINtCsi5jKAOe9cvS_5snafu9IntoErrorNtB5_20VerificationKeyErrorE10into_errorB7_
FNDA:0,_RNvMsa_NtCs7j5G3H6G69x_17ultraplonk_no_std3keyINtB5_20PointNotOnCurveSnafupE5buildB7_
FNDA:0,_RINvMsa_NtCs7j5G3H6G69x_17ultraplonk_no_std3keyINtB6_20PointNotOnCurveSnafupE4failpEB8_
FNDA:0,_RNvXININtCs7j5G3H6G69x_17ultraplonk_no_std3keysb_0pEINtB5_20PointNotOnCurveSnafupEINtCsi5jKAOe9cvS_5snafu9IntoErrorNtB5_20VerificationKeyErrorE10into_errorB7_
FNDA:0,_RNvMsc_NtCs7j5G3H6G69x_17ultraplonk_no_std3keyNtB5_23InvalidCircuitTypeSnafu5build
FNDA:0,_RINvMsc_NtCs7j5G3H6G69x_17ultraplonk_no_std3keyNtB6_23InvalidCircuitTypeSnafu4failpEB8_
FNDA:0,_RNvXsd_NtCs7j5G3H6G69x_17ultraplonk_no_std3keyNtB5_23InvalidCircuitTypeSnafuINtCsi5jKAOe9cvS_5snafu9IntoErrorNtB5_20VerificationKeyErrorE10into_error
FNDA:0,_RNvMse_NtCs7j5G3H6G69x_17ultraplonk_no_std3keyNtB5_23InvalidCircuitSizeSnafu5build
FNDA:0,_RINvMse_NtCs7j5G3H6G69x_17ultraplonk_no_std3keyNtB6_23InvalidCircuitSizeSnafu4failpEB8_
FNDA:0,_RNvXsf_NtCs7j5G3H6G69x_17ultraplonk_no_std3keyNtB5_23InvalidCircuitSizeSnafuINtCsi5jKAOe9cvS_5snafu9IntoErrorNtB5_20VerificationKeyErrorE10into_error
FNDA:0,_RNvMsg_NtCs7j5G3H6G69x_17ultraplonk_no_std3keyNtB5_32InvalidNumberOfPublicInputsSnafu5build
FNDA:0,_RINvMsg_NtCs7j5G3H6G69x_17ultraplonk_no_std3keyNtB6_32InvalidNumberOfPublicInputsSnafu4failpEB8_
FNDA:0,_RNvXsh_NtCs7j5G3H6G69x_17ultraplonk_no_std3keyNtB5_32InvalidNumberOfPublicInputsSnafuINtCsi5jKAOe9cvS_5snafu9IntoErrorNtB5_20VerificationKeyErrorE10into_error
FNDA:0,_RNvMsi_NtCs7j5G3H6G69x_17ultraplonk_no_std3keyINtB5_27InvalidCommitmentFieldSnafupE5buildB7_
FNDA:0,_RINvMsi_NtCs7j5G3H6G69x_17ultraplonk_no_std3keyINtB6_27InvalidCommitmentFieldSnafupE4failpEB8_
FNDA:0,_RNvXININtCs7j5G3H6G69x_17ultraplonk_no_std3keysj_0pEINtB5_27InvalidCommitmentFieldSnafupEINtCsi5jKAOe9cvS_5snafu9IntoErrorNtB5_20VerificationKeyErrorE10into_errorB7_
FNDA:0,_RNvMsk_NtCs7j5G3H6G69x_17ultraplonk_no_std3keyNtB5_29InvalidCommitmentsNumberSnafu5build
FNDA:0,_RINvMsk_NtCs7j5G3H6G69x_17ultraplonk_no_std3keyNtB6_29InvalidCommitmentsNumberSnafu4failpEB8_
FNDA:0,_RNvXsl_NtCs7j5G3H6G69x_17ultraplonk_no_std3keyNtB5_29InvalidCommitmentsNumberSnafuINtCsi5jKAOe9cvS_5snafu9IntoErrorNtB5_20VerificationKeyErrorE10into_error
FNDA:0,_RNvMsm_NtCs7j5G3H6G69x_17ultraplonk_no_std3keyNtB5_25InvalidCommitmentKeySnafu5build
FNDA:0,_RINvMsm_NtCs7j5G3H6G69x_17ultraplonk_no_std3keyNtB6_25InvalidCommitmentKeySnafu4failpEB8_
FNDA:0,_RNvXsn_NtCs7j5G3H6G69x_17ultraplonk_no_std3keyNtB5_25InvalidCommitmentKeySnafuINtCsi5jKAOe9cvS_5snafu9IntoErrorNtB5_20VerificationKeyErrorE10into_error
FNDA:0,_RNvMso_NtCs7j5G3H6G69x_17ultraplonk_no_std3keyINtB5_28UnexpectedCommitmentKeySnafuppE5buildB7_
FNDA:0,_RINvMso_NtCs7j5G3H6G69x_17ultraplonk_no_std3keyINtB6_28UnexpectedCommitmentKeySnafuppE4failpEB8_
FNDA:0,_RNvXININtCs7j5G3H6G69x_17ultraplonk_no_std3keysp_0ppEINtB5_28UnexpectedCommitmentKeySnafuppEINtCsi5jKAOe9cvS_5snafu9IntoErrorNtB5_20VerificationKeyErrorE10into_errorB7_
FNDA:0,_RNvMsq_NtCs7j5G3H6G69x_17ultraplonk_no_std3keyNtB5_26RecursionNotSupportedSnafu5build
FNDA:0,_RINvMsq_NtCs7j5G3H6G69x_17ultraplonk_no_std3keyNtB6_26RecursionNotSupportedSnafu4failpEB8_
FNDA:0,_RNvXsr_NtCs7j5G3H6G69x_17ultraplonk_no_std3keyNtB5_26RecursionNotSupportedSnafuINtCsi5jKAOe9cvS_5snafu9IntoErrorNtB5_20VerificationKeyErrorE10into_error
FNDA:0,_RNvXss_NtCs7j5G3H6G69x_17ultraplonk_no_std3keyNtB5_20VerificationKeyErrorNtNtCsiAVgAqkjXtQ_4core3fmt7Display3fmt
FNDA:0,_RNvXst_NtCs7j5G3H6G69x_17ultraplonk_no_std3keyNtB5_20VerificationKeyErrorNtNtCsi5jKAOe9cvS_5snafu14fallback_error5Error11description
FNDA:0,_RNvXst_NtCs7j5G3H6G69x_17ultraplonk_no_std3keyNtB5_20VerificationKeyErrorNtNtCsi5jKAOe9cvS_5snafu14fallback_error5Error5cause
FNDA:0,_RNvXst_NtCs7j5G3H6G69x_17ultraplonk_no_std3keyNtB5_20VerificationKeyErrorNtNtCsi5jKAOe9cvS_5snafu14fallback_error5Error6source
FNDA:0,_RNvXsu_NtCs7j5G3H6G69x_17ultraplonk_no_std3keyNtB5_20VerificationKeyErrorNtCsi5jKAOe9cvS_5snafu11ErrorCompat9backtrace
FNDA:0,_RNvMs1_NtCs7j5G3H6G69x_17ultraplonk_no_std3keyINtB5_15VerificationKeypE8as_bytesB7_
FNDA:0,_RINvNtCs7j5G3H6G69x_17ultraplonk_no_std3key8write_g1pEB4_
FNDA:0,_RNCINvNtCs7j5G3H6G69x_17ultraplonk_no_std3key8write_g1pE0B6_
FNDA:0,_RNCINvNtCs7j5G3H6G69x_17ultraplonk_no_std3key8write_g1pEs_0B6_
FNDA:10,_RNvMNtNtCs7j5G3H6G69x_17ultraplonk_no_std3key6shouldNtB2_8valid_vk3get
FNDA:10,_RNvMNtNtCs7j5G3H6G69x_17ultraplonk_no_std3key6shouldNtB2_8valid_vk7default
FNDA:10,_RNvNtNtCs7j5G3H6G69x_17ultraplonk_no_std3key6should8valid_vk
FNDA:10,_RNvMs_NtNtCs7j5G3H6G69x_17ultraplonk_no_std3key6shouldNtB4_12valid_raw_vk3get
FNDA:10,_RNvMs_NtNtCs7j5G3H6G69x_17ultraplonk_no_std3key6shouldNtB4_12valid_raw_vk7default
FNDA:10,_RNvNtNtCs7j5G3H6G69x_17ultraplonk_no_std3key6should12valid_raw_vk
FNDA:1,_RNvNtNtCs7j5G3H6G69x_17ultraplonk_no_std3key6shoulds_33deserialize_serialize_solidity_vk
FNDA:1,_RNvNvNtNtCs7j5G3H6G69x_17ultraplonk_no_std3key6shoulds_33deserialize_serialize_solidity_vk33deserialize_serialize_solidity_vk
FNDA:1,_RNvNtNtCs7j5G3H6G69x_17ultraplonk_no_std3key6shoulds_28deserialize_serialize_raw_vk
FNDA:1,_RNvNvNtNtCs7j5G3H6G69x_17ultraplonk_no_std3key6shoulds_28deserialize_serialize_raw_vk28deserialize_serialize_raw_vk
FNDA:2,_RNvMs_NtCs7j5G3H6G69x_17ultraplonk_no_std3keyINtB4_15VerificationKeyNtNtB6_15curvehooks_impl14CurveHooksImplE17as_solidity_bytesB6_
FNDA:15,_RNvMs_NtCs7j5G3H6G69x_17ultraplonk_no_std3keyINtB4_15VerificationKeyNtNtB6_15curvehooks_impl14CurveHooksImplE23try_from_solidity_bytesB6_
FNDA:1,_RNCNvMs_NtCs7j5G3H6G69x_17ultraplonk_no_std3keyINtB6_15VerificationKeyNtNtB8_15curvehooks_impl14CurveHooksImplE23try_from_solidity_bytes0B8_
FNDA:1,_RNCNvMs_NtCs7j5G3H6G69x_17ultraplonk_no_std3keyINtB6_15VerificationKeyNtNtB8_15curvehooks_impl14CurveHooksImplE23try_from_solidity_bytess_0B8_
FNDA:0,_RNCNvMs_NtCs7j5G3H6G69x_17ultraplonk_no_std3keyINtB6_15VerificationKeyNtNtB8_15curvehooks_impl14CurveHooksImplE23try_from_solidity_bytess0_0B8_
FNDA:0,_RNCNvMs_NtCs7j5G3H6G69x_17ultraplonk_no_std3keyINtB6_15VerificationKeyNtNtB8_15curvehooks_impl14CurveHooksImplE23try_from_solidity_bytess1_0B8_
FNDA:0,_RNCNvMs_NtCs7j5G3H6G69x_17ultraplonk_no_std3keyINtB6_15VerificationKeyNtNtB8_15curvehooks_impl14CurveHooksImplE23try_from_solidity_bytess2_0B8_
FNDA:0,_RNCNvMs_NtCs7j5G3H6G69x_17ultraplonk_no_std3keyINtB6_15VerificationKeyNtNtB8_15curvehooks_impl14CurveHooksImplE23try_from_solidity_bytess3_0B8_
FNDA:0,_RNCNvMs_NtCs7j5G3H6G69x_17ultraplonk_no_std3keyINtB6_15VerificationKeyNtNtB8_15curvehooks_impl14CurveHooksImplE23try_from_solidity_bytess4_0B8_
FNDA:0,_RNCNvMs_NtCs7j5G3H6G69x_17ultraplonk_no_std3keyINtB6_15VerificationKeyNtNtB8_15curvehooks_impl14CurveHooksImplE23try_from_solidity_bytess5_0B8_
FNDA:0,_RNCNvMs_NtCs7j5G3H6G69x_17ultraplonk_no_std3keyINtB6_15VerificationKeyNtNtB8_15curvehooks_impl14CurveHooksImplE23try_from_solidity_bytess6_0B8_
FNDA:0,_RNCNvMs_NtCs7j5G3H6G69x_17ultraplonk_no_std3keyINtB6_15VerificationKeyNtNtB8_15curvehooks_impl14CurveHooksImplE23try_from_solidity_bytess7_0B8_
FNDA:0,_RNCNvMs_NtCs7j5G3H6G69x_17ultraplonk_no_std3keyINtB6_15VerificationKeyNtNtB8_15curvehooks_impl14CurveHooksImplE23try_from_solidity_bytess8_0B8_
FNDA:0,_RNCNvMs_NtCs7j5G3H6G69x_17ultraplonk_no_std3keyINtB6_15VerificationKeyNtNtB8_15curvehooks_impl14CurveHooksImplE23try_from_solidity_bytess9_0B8_
FNDA:0,_RNCNvMs_NtCs7j5G3H6G69x_17ultraplonk_no_std3keyINtB6_15VerificationKeyNtNtB8_15curvehooks_impl14CurveHooksImplE23try_from_solidity_bytessa_0B8_
FNDA:0,_RNCNvMs_NtCs7j5G3H6G69x_17ultraplonk_no_std3keyINtB6_15VerificationKeyNtNtB8_15curvehooks_impl14CurveHooksImplE23try_from_solidity_bytessb_0B8_
FNDA:0,_RNCNvMs_NtCs7j5G3H6G69x_17ultraplonk_no_std3keyINtB6_15VerificationKeyNtNtB8_15curvehooks_impl14CurveHooksImplE23try_from_solidity_bytessc_0B8_
FNDA:0,_RNCNvMs_NtCs7j5G3H6G69x_17ultraplonk_no_std3keyINtB6_15VerificationKeyNtNtB8_15curvehooks_impl14CurveHooksImplE23try_from_solidity_bytessd_0B8_
FNDA:0,_RNCNvMs_NtCs7j5G3H6G69x_17ultraplonk_no_std3keyINtB6_15VerificationKeyNtNtB8_15curvehooks_impl14CurveHooksImplE23try_from_solidity_bytesse_0B8_
FNDA:0,_RNCNvMs_NtCs7j5G3H6G69x_17ultraplonk_no_std3keyINtB6_15VerificationKeyNtNtB8_15curvehooks_impl14CurveHooksImplE23try_from_solidity_bytessf_0B8_
FNDA:0,_RNCNvMs_NtCs7j5G3H6G69x_17ultraplonk_no_std3keyINtB6_15VerificationKeyNtNtB8_15curvehooks_impl14CurveHooksImplE23try_from_solidity_bytessg_0B8_
FNDA:0,_RNCNvMs_NtCs7j5G3H6G69x_17ultraplonk_no_std3keyINtB6_15VerificationKeyNtNtB8_15curvehooks_impl14CurveHooksImplE23try_from_solidity_bytessh_0B8_
FNDA:0,_RNCNvMs_NtCs7j5G3H6G69x_17ultraplonk_no_std3keyINtB6_15VerificationKeyNtNtB8_15curvehooks_impl14CurveHooksImplE23try_from_solidity_bytessi_0B8_
FNDA:0,_RNCNvMs_NtCs7j5G3H6G69x_17ultraplonk_no_std3keyINtB6_15VerificationKeyNtNtB8_15curvehooks_impl14CurveHooksImplE23try_from_solidity_bytessj_0B8_
FNDA:0,_RNCNvMs_NtCs7j5G3H6G69x_17ultraplonk_no_std3keyINtB6_15VerificationKeyNtNtB8_15curvehooks_impl14CurveHooksImplE23try_from_solidity_bytessk_0B8_
FNDA:0,_RNCNvMs_NtCs7j5G3H6G69x_17ultraplonk_no_std3keyINtB6_15VerificationKeyNtNtB8_15curvehooks_impl14CurveHooksImplE23try_from_solidity_bytessl_0B8_
FNDA:0,_RNCNvMs_NtCs7j5G3H6G69x_17ultraplonk_no_std3keyINtB6_15VerificationKeyNtNtB8_15curvehooks_impl14CurveHooksImplE23try_from_solidity_bytessm_0B8_
FNDA:1,_RNCNvMs_NtCs7j5G3H6G69x_17ultraplonk_no_std3keyINtB6_15VerificationKeyNtNtB8_15curvehooks_impl14CurveHooksImplE23try_from_solidity_bytessn_0B8_
FNDA:0,_RNCNvNtCs7j5G3H6G69x_17ultraplonk_no_std3key8get_u2560B5_
FNDA:185,_RINvNtCs7j5G3H6G69x_17ultraplonk_no_std3key6get_g1NtNtB4_15curvehooks_impl14CurveHooksImplEB4_
FNDA:4,_RNvXs0_NtCs7j5G3H6G69x_17ultraplonk_no_std3keyINtB5_23PreparedVerificationKeyNtNtB7_15curvehooks_impl14CurveHooksImplEINtNtCsiAVgAqkjXtQ_4core7convert4FromRINtB5_15VerificationKeyB1d_EE4fromB7_
FNDA:11,_RNvXs2_NtCs7j5G3H6G69x_17ultraplonk_no_std3keyINtB5_15VerificationKeyNtNtB7_15curvehooks_impl14CurveHooksImplEINtNtCsiAVgAqkjXtQ_4core7convert7TryFromRShE8try_fromB7_
FNDA:0,_RNCNvXs2_NtCs7j5G3H6G69x_17ultraplonk_no_std3keyINtB7_15VerificationKeyNtNtB9_15curvehooks_impl14CurveHooksImplEINtNtCsiAVgAqkjXtQ_4core7convert7TryFromRShE8try_from0B9_
FNDA:0,_RNCNvNtCs7j5G3H6G69x_17ultraplonk_no_std3key8read_u320B5_
FNDA:51,_RINvNtCs7j5G3H6G69x_17ultraplonk_no_std3key15read_commitmentNtNtB4_15curvehooks_impl14CurveHooksImplEB4_
FNDA:1,_RNCINvNtCs7j5G3H6G69x_17ultraplonk_no_std3key15read_commitmentNtNtB6_15curvehooks_impl14CurveHooksImplE0B6_
FNDA:1,_RNCINvNtCs7j5G3H6G69x_17ultraplonk_no_std3key15read_commitmentNtNtB6_15curvehooks_impl14CurveHooksImplEs_0B6_
FNDA:47,_RINvNtCs7j5G3H6G69x_17ultraplonk_no_std3key7read_g1NtNtB4_15curvehooks_impl14CurveHooksImplEB4_
FNDA:1,_RNCINvNtCs7j5G3H6G69x_17ultraplonk_no_std3key7read_g1NtNtB6_15curvehooks_impl14CurveHooksImplE0B6_
FNDA:1,_RINvNtCs7j5G3H6G69x_17ultraplonk_no_std3key7read_g2NtNtB4_15curvehooks_impl14CurveHooksImplEB4_
FNDA:1,_RNvNtNtNtCs7j5G3H6G69x_17ultraplonk_no_std3key6should6rejects_24a_vk_from_a_short_buffer
FNDA:1,_RNvNvNtNtNtCs7j5G3H6G69x_17ultraplonk_no_std3key6should6rejects_24a_vk_from_a_short_buffer24a_vk_from_a_short_buffer
FNDA:1,_RNvNtNtNtCs7j5G3H6G69x_17ultraplonk_no_std3key6should6rejects_28a_raw_vk_from_a_short_buffer
FNDA:1,_RNvNvNtNtNtCs7j5G3H6G69x_17ultraplonk_no_std3key6should6rejects_28a_raw_vk_from_a_short_buffer28a_raw_vk_from_a_short_buffer
FNDA:1,_RNvNtNtNtCs7j5G3H6G69x_17ultraplonk_no_std3key6should6rejects_30a_vk_with_invalid_circuit_type
FNDA:1,_RNvNvNtNtNtCs7j5G3H6G69x_17ultraplonk_no_std3key6should6rejects_30a_vk_with_invalid_circuit_type30a_vk_with_invalid_circuit_type
FNDA:1,_RNvNtNtNtCs7j5G3H6G69x_17ultraplonk_no_std3key6should6rejects_34a_raw_vk_with_invalid_circuit_type
FNDA:1,_RNvNvNtNtNtCs7j5G3H6G69x_17ultraplonk_no_std3key6should6rejects_34a_raw_vk_with_invalid_circuit_type34a_raw_vk_with_invalid_circuit_type
FNDA:1,_RNvNtNtNtCs7j5G3H6G69x_17ultraplonk_no_std3key6should6rejects_30a_vk_with_invalid_circuit_size
FNDA:1,_RNvNvNtNtNtCs7j5G3H6G69x_17ultraplonk_no_std3key6should6rejects_30a_vk_with_invalid_circuit_size30a_vk_with_invalid_circuit_size
FNDA:1,_RNvNtNtNtCs7j5G3H6G69x_17ultraplonk_no_std3key6should6rejects_33a_vk_with_invalid_circuit_size_v2
FNDA:1,_RNvNvNtNtNtCs7j5G3H6G69x_17ultraplonk_no_std3key6should6rejects_33a_vk_with_invalid_circuit_size_v233a_vk_with_invalid_circuit_size_v2
FNDA:1,_RNvNtNtNtCs7j5G3H6G69x_17ultraplonk_no_std3key6should6rejects_34a_raw_vk_with_invalid_circuit_size
FNDA:1,_RNvNvNtNtNtCs7j5G3H6G69x_17ultraplonk_no_std3key6should6rejects_34a_raw_vk_with_invalid_circuit_size34a_raw_vk_with_invalid_circuit_size
FNDA:1,_RNvNtNtNtCs7j5G3H6G69x_17ultraplonk_no_std3key6should6rejects_36a_vk_with_invalid_commitments_number
FNDA:1,_RNvNvNtNtNtCs7j5G3H6G69x_17ultraplonk_no_std3key6should6rejects_36a_vk_with_invalid_commitments_number36a_vk_with_invalid_commitments_number
FNDA:1,_RNvNtNtNtCs7j5G3H6G69x_17ultraplonk_no_std3key6should6rejects_40a_raw_vk_with_invalid_commitments_number
FNDA:1,_RNvNvNtNtNtCs7j5G3H6G69x_17ultraplonk_no_std3key6should6rejects_40a_raw_vk_with_invalid_commitments_number40a_raw_vk_with_invalid_commitments_number
FNDA:1,_RNvNtNtNtCs7j5G3H6G69x_17ultraplonk_no_std3key6should6rejects_30a_vk_with_a_point_not_on_curve
FNDA:1,_RNvNvNtNtNtCs7j5G3H6G69x_17ultraplonk_no_std3key6should6rejects_30a_vk_with_a_point_not_on_curve30a_vk_with_a_point_not_on_curve
FNDA:1,_RNvNtNtNtCs7j5G3H6G69x_17ultraplonk_no_std3key6should6rejects_34a_raw_vk_with_a_point_not_on_curve
FNDA:1,_RNvNvNtNtNtCs7j5G3H6G69x_17ultraplonk_no_std3key6should6rejects_34a_raw_vk_with_a_point_not_on_curve34a_raw_vk_with_a_point_not_on_curve
FNDA:1,_RNvNtNtNtCs7j5G3H6G69x_17ultraplonk_no_std3key6should6rejects_33a_vk_containing_a_recursive_proof
FNDA:1,_RNvNvNtNtNtCs7j5G3H6G69x_17ultraplonk_no_std3key6should6rejects_33a_vk_containing_a_recursive_proof33a_vk_containing_a_recursive_proof
FNDA:1,_RNvNtNtNtCs7j5G3H6G69x_17ultraplonk_no_std3key6should6rejects_33a_vk_with_recursive_proof_indices
FNDA:1,_RNvNvNtNtNtCs7j5G3H6G69x_17ultraplonk_no_std3key6should6rejects_33a_vk_with_recursive_proof_indices33a_vk_with_recursive_proof_indices
FNDA:1,_RNvNtNtNtCs7j5G3H6G69x_17ultraplonk_no_std3key6should6rejects_36a_vk_with_recursive_proof_indices_v2
FNDA:1,_RNvNvNtNtNtCs7j5G3H6G69x_17ultraplonk_no_std3key6should6rejects_36a_vk_with_recursive_proof_indices_v236a_vk_with_recursive_proof_indices_v2
FNDA:1,_RNvNtNtNtCs7j5G3H6G69x_17ultraplonk_no_std3key6should6rejects_37a_raw_vk_containing_a_recursive_proof
FNDA:1,_RNvNvNtNtNtCs7j5G3H6G69x_17ultraplonk_no_std3key6should6rejects_37a_raw_vk_containing_a_recursive_proof37a_raw_vk_containing_a_recursive_proof
FNDA:1,_RNvNtNtNtCs7j5G3H6G69x_17ultraplonk_no_std3key6should6rejects_30a_raw_vk_with_an_invalid_field
FNDA:1,_RNvNvNtNtNtCs7j5G3H6G69x_17ultraplonk_no_std3key6should6rejects_30a_raw_vk_with_an_invalid_field30a_raw_vk_with_an_invalid_field
FNDA:1,_RNvNtNtNtCs7j5G3H6G69x_17ultraplonk_no_std3key6should6rejects_39a_raw_vk_with_an_invalid_commitment_key
FNDA:1,_RNvNvNtNtNtCs7j5G3H6G69x_17ultraplonk_no_std3key6should6rejects_39a_raw_vk_with_an_invalid_commitment_key39a_raw_vk_with_an_invalid_commitment_key
FNDA:1,_RNvNtNtNtCs7j5G3H6G69x_17ultraplonk_no_std3key6should6rejects_42a_raw_vk_with_an_invalid_commitment_key_v2
FNDA:1,_RNvNvNtNtNtCs7j5G3H6G69x_17ultraplonk_no_std3key6should6rejects_42a_raw_vk_with_an_invalid_commitment_key_v242a_raw_vk_with_an_invalid_commitment_key_v2
FNDA:1,_RNvNtNtNtCs7j5G3H6G69x_17ultraplonk_no_std3key6should6rejects_39a_raw_vk_with_unexpected_commitment_key
FNDA:1,_RNvNvNtNtNtCs7j5G3H6G69x_17ultraplonk_no_std3key6should6rejects_39a_raw_vk_with_unexpected_commitment_key39a_raw_vk_with_unexpected_commitment_key
FNF:97
FNH:65
DA:36,0
DA:107,306
DA:108,306
DA:109,13
DA:110,13
DA:111,13
DA:112,13
DA:113,13
DA:114,13
DA:115,13
DA:116,13
DA:117,13
DA:118,13
DA:119,13
DA:120,13
DA:121,13
DA:122,13
DA:123,13
DA:124,13
DA:125,13
DA:126,13
DA:127,13
DA:128,20
DA:129,13
DA:130,13
DA:131,13
DA:133,306
DA:135,302
DA:136,302
DA:137,302
DA:138,289
DA:139,276
DA:140,263
DA:141,250
DA:142,237
DA:143,224
DA:144,211
DA:145,198
DA:146,185
DA:147,172
DA:148,159
DA:149,146
DA:150,133
DA:151,120
DA:152,107
DA:153,94
DA:154,81
DA:155,68
DA:156,55
DA:157,41
DA:158,27
DA:159,14
DA:160,1
DA:162,302
DA:198,13
DA:199,13
DA:201,13
DA:202,13
DA:203,13
DA:204,13
DA:205,13
DA:206,13
DA:207,13
DA:208,13
DA:209,13
DA:210,13
DA:211,13
DA:212,13
DA:213,13
DA:214,13
DA:215,13
DA:216,13
DA:217,13
DA:218,13
DA:219,13
DA:220,13
DA:221,13
DA:222,13
DA:223,13
DA:224,13
DA:225,13
DA:226,13
DA:227,13
DA:228,13
DA:229,13
DA:230,13
DA:231,13
DA:232,13
DA:233,13
DA:234,13
DA:235,13
DA:236,13
DA:237,13
DA:238,13
DA:239,13
DA:240,13
DA:241,13
DA:242,13
DA:243,13
DA:244,13
DA:245,13
DA:246,13
DA:247,13
DA:248,13
DA:249,13
DA:250,13
DA:251,13
DA:252,13
DA:253,13
DA:255,26
DA:256,26
DA:257,1
DA:258,25
DA:260,25
DA:261,23
DA:262,2
DA:265,23
DA:266,21
DA:267,21
DA:269,0
DA:271,21
DA:274,2
DA:277,20
DA:278,21
DA:280,19
DA:281,20
DA:282,1
DA:283,20
DA:284,19
DA:285,19
DA:286,0
DA:287,19
DA:288,19
DA:289,19
DA:290,0
DA:291,19
DA:292,19
DA:293,19
DA:294,0
DA:295,19
DA:296,19
DA:297,19
DA:298,0
DA:299,19
DA:300,19
DA:301,19
DA:302,0
DA:303,19
DA:304,19
DA:305,19
DA:306,0
DA:307,19
DA:308,19
DA:309,19
DA:310,0
DA:311,19
DA:312,19
DA:313,19
DA:314,0
DA:315,19
DA:316,19
DA:317,19
DA:318,0
DA:319,19
DA:320,19
DA:321,19
DA:322,0
DA:323,19
DA:324,19
DA:325,19
DA:326,0
DA:327,19
DA:328,19
DA:329,19
DA:330,0
DA:331,19
DA:332,19
DA:333,19
DA:334,0
DA:335,19
DA:336,19
DA:337,19
DA:338,0
DA:339,19
DA:340,19
DA:341,19
DA:342,0
DA:343,19
DA:344,19
DA:345,19
DA:346,0
DA:347,19
DA:348,19
DA:349,19
DA:350,0
DA:351,19
DA:352,19
DA:353,19
DA:354,0
DA:355,19
DA:356,19
DA:357,19
DA:358,0
DA:359,19
DA:360,19
DA:361,19
DA:362,0
DA:363,19
DA:364,19
DA:365,19
DA:366,0
DA:367,19
DA:368,19
DA:369,19
DA:370,0
DA:371,19
DA:373,19
DA:374,19
DA:375,19
DA:376,1
DA:377,18
DA:379,17
DA:380,18
DA:381,17
DA:382,1
DA:383,16
DA:385,16
DA:386,16
DA:387,16
DA:388,16
DA:389,16
DA:390,16
DA:391,16
DA:392,16
DA:393,16
DA:394,16
DA:395,16
DA:396,16
DA:397,16
DA:398,16
DA:399,16
DA:400,16
DA:401,16
DA:402,16
DA:403,16
DA:404,16
DA:405,16
DA:406,16
DA:407,16
DA:408,16
DA:409,16
DA:410,16
DA:411,16
DA:412,16
DA:413,16
DA:414,16
DA:415,26
DA:418,982
DA:419,982
DA:420,982
DA:421,982
DA:422,982
DA:424,87
DA:425,87
DA:426,87
DA:427,82
DA:428,82
DA:429,82
DA:431,5
DA:433,87
DA:435,19
DA:436,19
DA:437,19
DA:438,1
DA:439,18
DA:440,18
DA:442,0
DA:444,19
DA:446,438
DA:447,438
DA:448,0
DA:449,438
DA:451,438
DA:452,438
DA:454,438
DA:455,438
DA:456,438
DA:457,438
DA:458,1
DA:459,437
DA:460,437
DA:461,437
DA:462,437
DA:463,437
DA:464,437
DA:465,437
DA:466,438
DA:504,15
DA:505,15
DA:506,15
DA:507,15
DA:508,15
DA:509,15
DA:510,15
DA:511,15
DA:512,15
DA:513,15
DA:514,15
DA:515,15
DA:516,15
DA:517,15
DA:518,15
DA:519,15
DA:520,15
DA:521,15
DA:522,15
DA:523,15
DA:524,15
DA:525,15
DA:526,15
DA:527,15
DA:528,15
DA:529,15
DA:530,15
DA:531,15
DA:532,15
DA:533,15
DA:534,15
DA:535,15
DA:536,15
DA:537,15
DA:538,15
DA:539,15
DA:540,15
DA:541,15
DA:542,15
DA:546,0
DA:547,0
DA:548,0
DA:549,0
DA:550,0
DA:551,0
DA:552,0
DA:553,0
DA:554,0
DA:555,0
DA:556,0
DA:557,0
DA:558,0
DA:559,0
DA:560,0
DA:561,0
DA:562,0
DA:563,0
DA:564,0
DA:565,0
DA:566,0
DA:567,0
DA:568,0
DA:569,0
DA:570,0
DA:571,0
DA:572,0
DA:573,0
DA:574,0
DA:575,0
DA:576,0
DA:577,0
DA:578,0
DA:579,0
DA:580,0
DA:581,0
DA:582,0
DA:583,0
DA:584,0
DA:585,0
DA:586,0
DA:592,22
DA:594,22
DA:595,1
DA:596,21
DA:598,21
DA:599,20
DA:600,1
DA:607,20
DA:608,20
DA:609,20
DA:611,1
DA:613,19
DA:616,0
DA:619,19
DA:620,19
DA:622,19
DA:623,18
DA:624,1
DA:627,18
DA:628,13
DA:629,13
DA:630,13
DA:631,13
DA:632,13
DA:633,13
DA:634,13
DA:635,13
DA:636,13
DA:637,13
DA:638,13
DA:639,13
DA:640,13
DA:641,13
DA:642,13
DA:643,13
DA:644,13
DA:645,13
DA:646,13
DA:647,13
DA:648,13
DA:649,13
DA:653,13
DA:654,12
DA:655,1
DA:658,12
DA:659,12
DA:660,12
DA:661,12
DA:662,12
DA:663,12
DA:664,12
DA:665,12
DA:666,12
DA:667,12
DA:668,12
DA:669,12
DA:670,12
DA:671,12
DA:672,12
DA:673,12
DA:674,12
DA:675,12
DA:676,12
DA:677,12
DA:678,12
DA:679,12
DA:680,12
DA:681,12
DA:682,12
DA:683,12
DA:684,12
DA:685,12
DA:686,12
DA:687,12
DA:688,12
DA:689,12
DA:690,12
DA:691,12
DA:692,12
DA:693,12
DA:694,12
DA:695,12
DA:696,12
DA:697,12
DA:698,12
DA:699,12
DA:700,22
DA:703,383
DA:704,383
DA:705,383
DA:706,383
DA:708,13
DA:709,13
DA:710,13
DA:711,1
DA:712,12
DA:714,13
DA:716,304
DA:717,304
DA:718,304
DA:719,304
DA:720,304
DA:721,304
DA:722,304
DA:723,304
DA:724,304
DA:725,1
DA:726,303
DA:728,303
DA:729,303
DA:731,302
DA:732,302
DA:734,301
DA:735,1
DA:736,1
DA:737,1
DA:738,1
DA:739,300
DA:740,300
DA:741,300
DA:742,300
DA:743,299
DA:745,304
DA:747,300
DA:748,300
DA:749,300
DA:750,300
DA:751,300
DA:752,1
DA:757,0
DA:758,0
DA:759,0
DA:760,0
DA:761,0
DA:762,0
DA:763,300
DA:764,300
DA:766,0
DA:767,0
DA:768,0
DA:769,0
DA:770,0
DA:771,0
DA:772,0
DA:773,0
DA:774,0
DA:777,0
DA:778,0
DA:779,0
DA:780,0
DA:781,0
DA:782,0
DA:785,0
DA:786,0
DA:787,0
DA:790,12
DA:791,12
DA:792,0
DA:793,12
DA:794,12
DA:795,12
DA:796,12
DA:797,12
DA:798,12
DA:799,12
DA:800,12
DA:801,12
DA:802,12
DA:803,12
DA:804,12
DA:813,30
DA:872,30
DA:978,2
DA:986,2
DA:997,2
DA:1008,2
DA:1018,2
DA:1031,2
DA:1043,2
DA:1056,2
DA:1070,2
DA:1082,2
DA:1095,2
DA:1107,2
DA:1120,2
DA:1132,2
DA:1145,2
DA:1158,2
DA:1171,2
DA:1183,2
DA:1197,2
DA:1209,2
DA:1221,2
BRF:0
BRH:0
LF:650
LH:506
end_of_record
SF:/home/dimitris/my_repos/temp4/ultraplonk_verifier/src/lib.rs
FN:997,_RINvCsk9ngD3d3DdK_17ultraplonk_no_std20perform_final_checksNtNtB2_15curvehooks_impl14CurveHooksImplECska6KjoqsFU2_8noir_cli
FN:378,_RINvCsk9ngD3d3DdK_17ultraplonk_no_std22generate_eta_challengeNtNtB2_15curvehooks_impl14CurveHooksImplECska6KjoqsFU2_8noir_cli
FN:400,_RINvCsk9ngD3d3DdK_17ultraplonk_no_std23generate_beta_challengeNtNtB2_15curvehooks_impl14CurveHooksImplECska6KjoqsFU2_8noir_cli
FN:433,_RINvCsk9ngD3d3DdK_17ultraplonk_no_std23generate_zeta_challengeNtNtB2_15curvehooks_impl14CurveHooksImplECska6KjoqsFU2_8noir_cli
FN:248,_RINvCsk9ngD3d3DdK_17ultraplonk_no_std23verify_with_prepared_vkNtNtB2_15curvehooks_impl14CurveHooksImplECska6KjoqsFU2_8noir_cli
FN:421,_RINvCsk9ngD3d3DdK_17ultraplonk_no_std24generate_alpha_challengeNtNtB2_15curvehooks_impl14CurveHooksImplECska6KjoqsFU2_8noir_cli
FN:351,_RINvCsk9ngD3d3DdK_17ultraplonk_no_std25check_public_input_numberNtNtB2_15curvehooks_impl14CurveHooksImplECska6KjoqsFU2_8noir_cli
FN:888,_RINvCsk9ngD3d3DdK_17ultraplonk_no_std26compute_auxiliary_identityNtNtB2_15curvehooks_impl14CurveHooksImplECska6KjoqsFU2_8noir_cli
FN:606,_RINvCsk9ngD3d3DdK_17ultraplonk_no_std33compute_plookup_widget_evaluationNtNtB2_15curvehooks_impl14CurveHooksImplECska6KjoqsFU2_8noir_cli
FN:732,_RINvCsk9ngD3d3DdK_17ultraplonk_no_std34compute_elliptic_widget_evaluationNtNtB2_15curvehooks_impl14CurveHooksImplECska6KjoqsFU2_8noir_cli
FN:922,_RINvCsk9ngD3d3DdK_17ultraplonk_no_std35compute_auxiliary_widget_evaluationNtNtB2_15curvehooks_impl14CurveHooksImplECska6KjoqsFU2_8noir_cli
FN:506,_RINvCsk9ngD3d3DdK_17ultraplonk_no_std35compute_lagrange_and_vanishing_polyNtNtB2_15curvehooks_impl14CurveHooksImplECska6KjoqsFU2_8noir_cli
FN:657,_RINvCsk9ngD3d3DdK_17ultraplonk_no_std36compute_arithmetic_widget_evaluationNtNtB2_15curvehooks_impl14CurveHooksImplECska6KjoqsFU2_8noir_cli
FN:692,_RINvCsk9ngD3d3DdK_17ultraplonk_no_std37compute_genpermsort_widget_evaluationNtNtB2_15curvehooks_impl14CurveHooksImplECska6KjoqsFU2_8noir_cli
FN:565,_RINvCsk9ngD3d3DdK_17ultraplonk_no_std37compute_permutation_widget_evaluationNtNtB2_15curvehooks_impl14CurveHooksImplECska6KjoqsFU2_8noir_cli
FN:847,_RINvCsk9ngD3d3DdK_17ultraplonk_no_std38compute_aux_ram_consistency_evaluationNtNtB2_15curvehooks_impl14CurveHooksImplECska6KjoqsFU2_8noir_cli
FN:821,_RINvCsk9ngD3d3DdK_17ultraplonk_no_std39compute_aux_limb_accumulator_evaluationNtNtB2_15curvehooks_impl14CurveHooksImplECska6KjoqsFU2_8noir_cli
FN:793,_RINvCsk9ngD3d3DdK_17ultraplonk_no_std39compute_aux_non_native_field_evaluationNtNtB2_15curvehooks_impl14CurveHooksImplECska6KjoqsFU2_8noir_cli
FN:1120,_RINvCsk9ngD3d3DdK_17ultraplonk_no_std42compute_batch_evaluation_scalar_multiplierNtNtB2_15curvehooks_impl14CurveHooksImplECska6KjoqsFU2_8noir_cli
FN:228,_RINvCsk9ngD3d3DdK_17ultraplonk_no_std6verifyNtNtB2_15curvehooks_impl14CurveHooksImplECska6KjoqsFU2_8noir_cli
FN:203,_RINvMs_Csk9ngD3d3DdK_17ultraplonk_no_stdNtB5_12NuChallenges18compute_challengesNtNtB5_15curvehooks_impl14CurveHooksImplECska6KjoqsFU2_8noir_cli
FN:190,_RINvMs_Csk9ngD3d3DdK_17ultraplonk_no_stdNtB5_12NuChallenges3c_uNtNtB5_15curvehooks_impl14CurveHooksImplECska6KjoqsFU2_8noir_cli
FN:122,_RINvMs_Csk9ngD3d3DdK_17ultraplonk_no_stdNtB5_12NuChallenges9challengeNtNtB5_15curvehooks_impl14CurveHooksImplECska6KjoqsFU2_8noir_cli
FN:341,_RNCINvCsk9ngD3d3DdK_17ultraplonk_no_std23verify_with_prepared_vkNtNtB4_15curvehooks_impl14CurveHooksImplE0Cska6KjoqsFU2_8noir_cli
FN:234,_RNCINvCsk9ngD3d3DdK_17ultraplonk_no_std6verifyNtNtB4_15curvehooks_impl14CurveHooksImplE0Cska6KjoqsFU2_8noir_cli
FN:242,_RNCINvCsk9ngD3d3DdK_17ultraplonk_no_std6verifyNtNtB4_15curvehooks_impl14CurveHooksImplEs0_0Cska6KjoqsFU2_8noir_cli
FN:237,_RNCINvCsk9ngD3d3DdK_17ultraplonk_no_std6verifyNtNtB4_15curvehooks_impl14CurveHooksImplEs_0Cska6KjoqsFU2_8noir_cli
FN:122,_RINvMs_Csk9ngD3d3DdK_17ultraplonk_no_stdNtB5_12NuChallenges9challengepEB5_
FN:190,_RINvMs_Csk9ngD3d3DdK_17ultraplonk_no_stdNtB5_12NuChallenges3c_upEB5_
FN:203,_RINvMs_Csk9ngD3d3DdK_17ultraplonk_no_stdNtB5_12NuChallenges18compute_challengespEB5_
FN:228,_RINvCsk9ngD3d3DdK_17ultraplonk_no_std6verifypEB2_
FN:234,_RNCINvCsk9ngD3d3DdK_17ultraplonk_no_std6verifypE0B4_
FN:237,_RNCINvCsk9ngD3d3DdK_17ultraplonk_no_std6verifypEs_0B4_
FN:242,_RNCINvCsk9ngD3d3DdK_17ultraplonk_no_std6verifypEs0_0B4_
FN:248,_RINvCsk9ngD3d3DdK_17ultraplonk_no_std23verify_with_prepared_vkpEB2_
FN:341,_RNCINvCsk9ngD3d3DdK_17ultraplonk_no_std23verify_with_prepared_vkpE0B4_
FN:351,_RINvCsk9ngD3d3DdK_17ultraplonk_no_std25check_public_input_numberpEB2_
FN:378,_RINvCsk9ngD3d3DdK_17ultraplonk_no_std22generate_eta_challengepEB2_
FN:400,_RINvCsk9ngD3d3DdK_17ultraplonk_no_std23generate_beta_challengepEB2_
FN:421,_RINvCsk9ngD3d3DdK_17ultraplonk_no_std24generate_alpha_challengepEB2_
FN:433,_RINvCsk9ngD3d3DdK_17ultraplonk_no_std23generate_zeta_challengepEB2_
FN:506,_RINvCsk9ngD3d3DdK_17ultraplonk_no_std35compute_lagrange_and_vanishing_polypEB2_
FN:565,_RINvCsk9ngD3d3DdK_17ultraplonk_no_std37compute_permutation_widget_evaluationpEB2_
FN:606,_RINvCsk9ngD3d3DdK_17ultraplonk_no_std33compute_plookup_widget_evaluationpEB2_
FN:657,_RINvCsk9ngD3d3DdK_17ultraplonk_no_std36compute_arithmetic_widget_evaluationpEB2_
FN:692,_RINvCsk9ngD3d3DdK_17ultraplonk_no_std37compute_genpermsort_widget_evaluationpEB2_
FN:732,_RINvCsk9ngD3d3DdK_17ultraplonk_no_std34compute_elliptic_widget_evaluationpEB2_
FN:793,_RINvCsk9ngD3d3DdK_17ultraplonk_no_std39compute_aux_non_native_field_evaluationpEB2_
FN:821,_RINvCsk9ngD3d3DdK_17ultraplonk_no_std39compute_aux_limb_accumulator_evaluationpEB2_
FN:847,_RINvCsk9ngD3d3DdK_17ultraplonk_no_std38compute_aux_ram_consistency_evaluationpEB2_
FN:888,_RINvCsk9ngD3d3DdK_17ultraplonk_no_std26compute_auxiliary_identitypEB2_
FN:922,_RINvCsk9ngD3d3DdK_17ultraplonk_no_std35compute_auxiliary_widget_evaluationpEB2_
FN:997,_RINvCsk9ngD3d3DdK_17ultraplonk_no_std20perform_final_checkspEB2_
FN:1120,_RINvCsk9ngD3d3DdK_17ultraplonk_no_std42compute_batch_evaluation_scalar_multiplierpEB2_
FN:75,_RNvMCsk9ngD3d3DdK_17ultraplonk_no_stdNtB2_10Challenges3new
FN:118,_RNvMs_Csk9ngD3d3DdK_17ultraplonk_no_stdNtB4_12NuChallenges3new
FN:175,_RNvMs_Csk9ngD3d3DdK_17ultraplonk_no_stdNtB4_12NuChallenges3c_v
FN:369,_RNvCsk9ngD3d3DdK_17ultraplonk_no_std26generate_initial_challenge
FN:412,_RNvCsk9ngD3d3DdK_17ultraplonk_no_std24generate_gamma_challenge
FN:450,_RNvCsk9ngD3d3DdK_17ultraplonk_no_std26compute_public_input_delta
FN:486,_RNvCsk9ngD3d3DdK_17ultraplonk_no_std28compute_plookup_delta_factor
FN:979,_RNvCsk9ngD3d3DdK_17ultraplonk_no_std19quotient_evaluation
FN:176,_RNCNvMs_Csk9ngD3d3DdK_17ultraplonk_no_stdNtB6_12NuChallenges3c_v0B6_
FN:75,_RNvMCs7j5G3H6G69x_17ultraplonk_no_stdNtB2_10Challenges3new
FN:118,_RNvMs_Cs7j5G3H6G69x_17ultraplonk_no_stdNtB4_12NuChallenges3new
FN:175,_RNvMs_Cs7j5G3H6G69x_17ultraplonk_no_stdNtB4_12NuChallenges3c_v
FN:369,_RNvCs7j5G3H6G69x_17ultraplonk_no_std26generate_initial_challenge
FN:412,_RNvCs7j5G3H6G69x_17ultraplonk_no_std24generate_gamma_challenge
FN:450,_RNvCs7j5G3H6G69x_17ultraplonk_no_std26compute_public_input_delta
FN:486,_RNvCs7j5G3H6G69x_17ultraplonk_no_std28compute_plookup_delta_factor
FN:979,_RNvCs7j5G3H6G69x_17ultraplonk_no_std19quotient_evaluation
FN:122,_RINvMs_Cs7j5G3H6G69x_17ultraplonk_no_stdNtB5_12NuChallenges9challengeNtNtB5_15curvehooks_impl14CurveHooksImplEB5_
FN:176,_RNCNvMs_Cs7j5G3H6G69x_17ultraplonk_no_stdNtB6_12NuChallenges3c_v0B6_
FN:190,_RINvMs_Cs7j5G3H6G69x_17ultraplonk_no_stdNtB5_12NuChallenges3c_uNtNtB5_15curvehooks_impl14CurveHooksImplEB5_
FN:203,_RINvMs_Cs7j5G3H6G69x_17ultraplonk_no_stdNtB5_12NuChallenges18compute_challengesNtNtB5_15curvehooks_impl14CurveHooksImplEB5_
FN:228,_RINvCs7j5G3H6G69x_17ultraplonk_no_std6verifyNtNtB2_15curvehooks_impl14CurveHooksImplEB2_
FN:234,_RNCINvCs7j5G3H6G69x_17ultraplonk_no_std6verifyNtNtB4_15curvehooks_impl14CurveHooksImplE0B4_
FN:237,_RNCINvCs7j5G3H6G69x_17ultraplonk_no_std6verifyNtNtB4_15curvehooks_impl14CurveHooksImplEs_0B4_
FN:242,_RNCINvCs7j5G3H6G69x_17ultraplonk_no_std6verifyNtNtB4_15curvehooks_impl14CurveHooksImplEs0_0B4_
FN:248,_RINvCs7j5G3H6G69x_17ultraplonk_no_std23verify_with_prepared_vkNtNtB2_15curvehooks_impl14CurveHooksImplEB2_
FN:341,_RNCINvCs7j5G3H6G69x_17ultraplonk_no_std23verify_with_prepared_vkNtNtB4_15curvehooks_impl14CurveHooksImplE0B4_
FN:351,_RINvCs7j5G3H6G69x_17ultraplonk_no_std25check_public_input_numberNtNtB2_15curvehooks_impl14CurveHooksImplEB2_
FN:378,_RINvCs7j5G3H6G69x_17ultraplonk_no_std22generate_eta_challengeNtNtB2_15curvehooks_impl14CurveHooksImplEB2_
FN:400,_RINvCs7j5G3H6G69x_17ultraplonk_no_std23generate_beta_challengeNtNtB2_15curvehooks_impl14CurveHooksImplEB2_
FN:421,_RINvCs7j5G3H6G69x_17ultraplonk_no_std24generate_alpha_challengeNtNtB2_15curvehooks_impl14CurveHooksImplEB2_
FN:433,_RINvCs7j5G3H6G69x_17ultraplonk_no_std23generate_zeta_challengeNtNtB2_15curvehooks_impl14CurveHooksImplEB2_
FN:506,_RINvCs7j5G3H6G69x_17ultraplonk_no_std35compute_lagrange_and_vanishing_polyNtNtB2_15curvehooks_impl14CurveHooksImplEB2_
FN:565,_RINvCs7j5G3H6G69x_17ultraplonk_no_std37compute_permutation_widget_evaluationNtNtB2_15curvehooks_impl14CurveHooksImplEB2_
FN:606,_RINvCs7j5G3H6G69x_17ultraplonk_no_std33compute_plookup_widget_evaluationNtNtB2_15curvehooks_impl14CurveHooksImplEB2_
FN:657,_RINvCs7j5G3H6G69x_17ultraplonk_no_std36compute_arithmetic_widget_evaluationNtNtB2_15curvehooks_impl14CurveHooksImplEB2_
FN:692,_RINvCs7j5G3H6G69x_17ultraplonk_no_std37compute_genpermsort_widget_evaluationNtNtB2_15curvehooks_impl14CurveHooksImplEB2_
FN:732,_RINvCs7j5G3H6G69x_17ultraplonk_no_std34compute_elliptic_widget_evaluationNtNtB2_15curvehooks_impl14CurveHooksImplEB2_
FN:793,_RINvCs7j5G3H6G69x_17ultraplonk_no_std39compute_aux_non_native_field_evaluationNtNtB2_15curvehooks_impl14CurveHooksImplEB2_
FN:821,_RINvCs7j5G3H6G69x_17ultraplonk_no_std39compute_aux_limb_accumulator_evaluationNtNtB2_15curvehooks_impl14CurveHooksImplEB2_
FN:847,_RINvCs7j5G3H6G69x_17ultraplonk_no_std38compute_aux_ram_consistency_evaluationNtNtB2_15curvehooks_impl14CurveHooksImplEB2_
FN:888,_RINvCs7j5G3H6G69x_17ultraplonk_no_std26compute_auxiliary_identityNtNtB2_15curvehooks_impl14CurveHooksImplEB2_
FN:922,_RINvCs7j5G3H6G69x_17ultraplonk_no_std35compute_auxiliary_widget_evaluationNtNtB2_15curvehooks_impl14CurveHooksImplEB2_
FN:997,_RINvCs7j5G3H6G69x_17ultraplonk_no_std20perform_final_checksNtNtB2_15curvehooks_impl14CurveHooksImplEB2_
FN:1120,_RINvCs7j5G3H6G69x_17ultraplonk_no_std42compute_batch_evaluation_scalar_multiplierNtNtB2_15curvehooks_impl14CurveHooksImplEB2_
FNDA:11,_RINvCsk9ngD3d3DdK_17ultraplonk_no_std20perform_final_checksNtNtB2_15curvehooks_impl14CurveHooksImplECska6KjoqsFU2_8noir_cli
FNDA:11,_RINvCsk9ngD3d3DdK_17ultraplonk_no_std22generate_eta_challengeNtNtB2_15curvehooks_impl14CurveHooksImplECska6KjoqsFU2_8noir_cli
FNDA:11,_RINvCsk9ngD3d3DdK_17ultraplonk_no_std23generate_beta_challengeNtNtB2_15curvehooks_impl14CurveHooksImplECska6KjoqsFU2_8noir_cli
FNDA:11,_RINvCsk9ngD3d3DdK_17ultraplonk_no_std23generate_zeta_challengeNtNtB2_15curvehooks_impl14CurveHooksImplECska6KjoqsFU2_8noir_cli
FNDA:11,_RINvCsk9ngD3d3DdK_17ultraplonk_no_std23verify_with_prepared_vkNtNtB2_15curvehooks_impl14CurveHooksImplECska6KjoqsFU2_8noir_cli
FNDA:11,_RINvCsk9ngD3d3DdK_17ultraplonk_no_std24generate_alpha_challengeNtNtB2_15curvehooks_impl14CurveHooksImplECska6KjoqsFU2_8noir_cli
FNDA:11,_RINvCsk9ngD3d3DdK_17ultraplonk_no_std25check_public_input_numberNtNtB2_15curvehooks_impl14CurveHooksImplECska6KjoqsFU2_8noir_cli
FNDA:11,_RINvCsk9ngD3d3DdK_17ultraplonk_no_std26compute_auxiliary_identityNtNtB2_15curvehooks_impl14CurveHooksImplECska6KjoqsFU2_8noir_cli
FNDA:11,_RINvCsk9ngD3d3DdK_17ultraplonk_no_std33compute_plookup_widget_evaluationNtNtB2_15curvehooks_impl14CurveHooksImplECska6KjoqsFU2_8noir_cli
FNDA:11,_RINvCsk9ngD3d3DdK_17ultraplonk_no_std34compute_elliptic_widget_evaluationNtNtB2_15curvehooks_impl14CurveHooksImplECska6KjoqsFU2_8noir_cli
FNDA:11,_RINvCsk9ngD3d3DdK_17ultraplonk_no_std35compute_auxiliary_widget_evaluationNtNtB2_15curvehooks_impl14CurveHooksImplECska6KjoqsFU2_8noir_cli
FNDA:11,_RINvCsk9ngD3d3DdK_17ultraplonk_no_std35compute_lagrange_and_vanishing_polyNtNtB2_15curvehooks_impl14CurveHooksImplECska6KjoqsFU2_8noir_cli
FNDA:11,_RINvCsk9ngD3d3DdK_17ultraplonk_no_std36compute_arithmetic_widget_evaluationNtNtB2_15curvehooks_impl14CurveHooksImplECska6KjoqsFU2_8noir_cli
FNDA:11,_RINvCsk9ngD3d3DdK_17ultraplonk_no_std37compute_genpermsort_widget_evaluationNtNtB2_15curvehooks_impl14CurveHooksImplECska6KjoqsFU2_8noir_cli
FNDA:11,_RINvCsk9ngD3d3DdK_17ultraplonk_no_std37compute_permutation_widget_evaluationNtNtB2_15curvehooks_impl14CurveHooksImplECska6KjoqsFU2_8noir_cli
FNDA:11,_RINvCsk9ngD3d3DdK_17ultraplonk_no_std38compute_aux_ram_consistency_evaluationNtNtB2_15curvehooks_impl14CurveHooksImplECska6KjoqsFU2_8noir_cli
FNDA:11,_RINvCsk9ngD3d3DdK_17ultraplonk_no_std39compute_aux_limb_accumulator_evaluationNtNtB2_15curvehooks_impl14CurveHooksImplECska6KjoqsFU2_8noir_cli
FNDA:11,_RINvCsk9ngD3d3DdK_17ultraplonk_no_std39compute_aux_non_native_field_evaluationNtNtB2_15curvehooks_impl14CurveHooksImplECska6KjoqsFU2_8noir_cli
FNDA:11,_RINvCsk9ngD3d3DdK_17ultraplonk_no_std42compute_batch_evaluation_scalar_multiplierNtNtB2_15curvehooks_impl14CurveHooksImplECska6KjoqsFU2_8noir_cli
FNDA:11,_RINvCsk9ngD3d3DdK_17ultraplonk_no_std6verifyNtNtB2_15curvehooks_impl14CurveHooksImplECska6KjoqsFU2_8noir_cli
FNDA:11,_RINvMs_Csk9ngD3d3DdK_17ultraplonk_no_stdNtB5_12NuChallenges18compute_challengesNtNtB5_15curvehooks_impl14CurveHooksImplECska6KjoqsFU2_8noir_cli
FNDA:11,_RINvMs_Csk9ngD3d3DdK_17ultraplonk_no_stdNtB5_12NuChallenges3c_uNtNtB5_15curvehooks_impl14CurveHooksImplECska6KjoqsFU2_8noir_cli
FNDA:11,_RINvMs_Csk9ngD3d3DdK_17ultraplonk_no_stdNtB5_12NuChallenges9challengeNtNtB5_15curvehooks_impl14CurveHooksImplECska6KjoqsFU2_8noir_cli
FNDA:0,_RNCINvCsk9ngD3d3DdK_17ultraplonk_no_std23verify_with_prepared_vkNtNtB4_15curvehooks_impl14CurveHooksImplE0Cska6KjoqsFU2_8noir_cli
FNDA:0,_RNCINvCsk9ngD3d3DdK_17ultraplonk_no_std6verifyNtNtB4_15curvehooks_impl14CurveHooksImplE0Cska6KjoqsFU2_8noir_cli
FNDA:11,_RNCINvCsk9ngD3d3DdK_17ultraplonk_no_std6verifyNtNtB4_15curvehooks_impl14CurveHooksImplEs0_0Cska6KjoqsFU2_8noir_cli
FNDA:0,_RNCINvCsk9ngD3d3DdK_17ultraplonk_no_std6verifyNtNtB4_15curvehooks_impl14CurveHooksImplEs_0Cska6KjoqsFU2_8noir_cli
FNDA:0,_RINvMs_Csk9ngD3d3DdK_17ultraplonk_no_stdNtB5_12NuChallenges9challengepEB5_
FNDA:0,_RINvMs_Csk9ngD3d3DdK_17ultraplonk_no_stdNtB5_12NuChallenges3c_upEB5_
FNDA:0,_RINvMs_Csk9ngD3d3DdK_17ultraplonk_no_stdNtB5_12NuChallenges18compute_challengespEB5_
FNDA:0,_RINvCsk9ngD3d3DdK_17ultraplonk_no_std6verifypEB2_
FNDA:0,_RNCINvCsk9ngD3d3DdK_17ultraplonk_no_std6verifypE0B4_
FNDA:0,_RNCINvCsk9ngD3d3DdK_17ultraplonk_no_std6verifypEs_0B4_
FNDA:0,_RNCINvCsk9ngD3d3DdK_17ultraplonk_no_std6verifypEs0_0B4_
FNDA:0,_RINvCsk9ngD3d3DdK_17ultraplonk_no_std23verify_with_prepared_vkpEB2_
FNDA:0,_RNCINvCsk9ngD3d3DdK_17ultraplonk_no_std23verify_with_prepared_vkpE0B4_
FNDA:0,_RINvCsk9ngD3d3DdK_17ultraplonk_no_std25check_public_input_numberpEB2_
FNDA:0,_RINvCsk9ngD3d3DdK_17ultraplonk_no_std22generate_eta_challengepEB2_
FNDA:0,_RINvCsk9ngD3d3DdK_17ultraplonk_no_std23generate_beta_challengepEB2_
FNDA:0,_RINvCsk9ngD3d3DdK_17ultraplonk_no_std24generate_alpha_challengepEB2_
FNDA:0,_RINvCsk9ngD3d3DdK_17ultraplonk_no_std23generate_zeta_challengepEB2_
FNDA:0,_RINvCsk9ngD3d3DdK_17ultraplonk_no_std35compute_lagrange_and_vanishing_polypEB2_
FNDA:0,_RINvCsk9ngD3d3DdK_17ultraplonk_no_std37compute_permutation_widget_evaluationpEB2_
FNDA:0,_RINvCsk9ngD3d3DdK_17ultraplonk_no_std33compute_plookup_widget_evaluationpEB2_
FNDA:0,_RINvCsk9ngD3d3DdK_17ultraplonk_no_std36compute_arithmetic_widget_evaluationpEB2_
FNDA:0,_RINvCsk9ngD3d3DdK_17ultraplonk_no_std37compute_genpermsort_widget_evaluationpEB2_
FNDA:0,_RINvCsk9ngD3d3DdK_17ultraplonk_no_std34compute_elliptic_widget_evaluationpEB2_
FNDA:0,_RINvCsk9ngD3d3DdK_17ultraplonk_no_std39compute_aux_non_native_field_evaluationpEB2_
FNDA:0,_RINvCsk9ngD3d3DdK_17ultraplonk_no_std39compute_aux_limb_accumulator_evaluationpEB2_
FNDA:0,_RINvCsk9ngD3d3DdK_17ultraplonk_no_std38compute_aux_ram_consistency_evaluationpEB2_
FNDA:0,_RINvCsk9ngD3d3DdK_17ultraplonk_no_std26compute_auxiliary_identitypEB2_
FNDA:0,_RINvCsk9ngD3d3DdK_17ultraplonk_no_std35compute_auxiliary_widget_evaluationpEB2_
FNDA:0,_RINvCsk9ngD3d3DdK_17ultraplonk_no_std20perform_final_checkspEB2_
FNDA:0,_RINvCsk9ngD3d3DdK_17ultraplonk_no_std42compute_batch_evaluation_scalar_multiplierpEB2_
FNDA:11,_RNvMCsk9ngD3d3DdK_17ultraplonk_no_stdNtB2_10Challenges3new
FNDA:11,_RNvMs_Csk9ngD3d3DdK_17ultraplonk_no_stdNtB4_12NuChallenges3new
FNDA:11,_RNvMs_Csk9ngD3d3DdK_17ultraplonk_no_stdNtB4_12NuChallenges3c_v
FNDA:11,_RNvCsk9ngD3d3DdK_17ultraplonk_no_std26generate_initial_challenge
FNDA:11,_RNvCsk9ngD3d3DdK_17ultraplonk_no_std24generate_gamma_challenge
FNDA:11,_RNvCsk9ngD3d3DdK_17ultraplonk_no_std26compute_public_input_delta
FNDA:11,_RNvCsk9ngD3d3DdK_17ultraplonk_no_std28compute_plookup_delta_factor
FNDA:11,_RNvCsk9ngD3d3DdK_17ultraplonk_no_std19quotient_evaluation
FNDA:330,_RNCNvMs_Csk9ngD3d3DdK_17ultraplonk_no_stdNtB6_12NuChallenges3c_v0B6_
FNDA:2,_RNvMCs7j5G3H6G69x_17ultraplonk_no_stdNtB2_10Challenges3new
FNDA:1,_RNvMs_Cs7j5G3H6G69x_17ultraplonk_no_stdNtB4_12NuChallenges3new
FNDA:1,_RNvMs_Cs7j5G3H6G69x_17ultraplonk_no_stdNtB4_12NuChallenges3c_v
FNDA:2,_RNvCs7j5G3H6G69x_17ultraplonk_no_std26generate_initial_challenge
FNDA:2,_RNvCs7j5G3H6G69x_17ultraplonk_no_std24generate_gamma_challenge
FNDA:2,_RNvCs7j5G3H6G69x_17ultraplonk_no_std26compute_public_input_delta
FNDA:1,_RNvCs7j5G3H6G69x_17ultraplonk_no_std28compute_plookup_delta_factor
FNDA:1,_RNvCs7j5G3H6G69x_17ultraplonk_no_std19quotient_evaluation
FNDA:1,_RINvMs_Cs7j5G3H6G69x_17ultraplonk_no_stdNtB5_12NuChallenges9challengeNtNtB5_15curvehooks_impl14CurveHooksImplEB5_
FNDA:30,_RNCNvMs_Cs7j5G3H6G69x_17ultraplonk_no_stdNtB6_12NuChallenges3c_v0B6_
FNDA:1,_RINvMs_Cs7j5G3H6G69x_17ultraplonk_no_stdNtB5_12NuChallenges3c_uNtNtB5_15curvehooks_impl14CurveHooksImplEB5_
FNDA:1,_RINvMs_Cs7j5G3H6G69x_17ultraplonk_no_stdNtB5_12NuChallenges18compute_challengesNtNtB5_15curvehooks_impl14CurveHooksImplEB5_
FNDA:5,_RINvCs7j5G3H6G69x_17ultraplonk_no_std6verifyNtNtB2_15curvehooks_impl14CurveHooksImplEB2_
FNDA:1,_RNCINvCs7j5G3H6G69x_17ultraplonk_no_std6verifyNtNtB4_15curvehooks_impl14CurveHooksImplE0B4_
FNDA:1,_RNCINvCs7j5G3H6G69x_17ultraplonk_no_std6verifyNtNtB4_15curvehooks_impl14CurveHooksImplEs_0B4_
FNDA:2,_RNCINvCs7j5G3H6G69x_17ultraplonk_no_std6verifyNtNtB4_15curvehooks_impl14CurveHooksImplEs0_0B4_
FNDA:2,_RINvCs7j5G3H6G69x_17ultraplonk_no_std23verify_with_prepared_vkNtNtB2_15curvehooks_impl14CurveHooksImplEB2_
FNDA:0,_RNCINvCs7j5G3H6G69x_17ultraplonk_no_std23verify_with_prepared_vkNtNtB4_15curvehooks_impl14CurveHooksImplE0B4_
FNDA:3,_RINvCs7j5G3H6G69x_17ultraplonk_no_std25check_public_input_numberNtNtB2_15curvehooks_impl14CurveHooksImplEB2_
FNDA:2,_RINvCs7j5G3H6G69x_17ultraplonk_no_std22generate_eta_challengeNtNtB2_15curvehooks_impl14CurveHooksImplEB2_
FNDA:2,_RINvCs7j5G3H6G69x_17ultraplonk_no_std23generate_beta_challengeNtNtB2_15curvehooks_impl14CurveHooksImplEB2_
FNDA:2,_RINvCs7j5G3H6G69x_17ultraplonk_no_std24generate_alpha_challengeNtNtB2_15curvehooks_impl14CurveHooksImplEB2_
FNDA:2,_RINvCs7j5G3H6G69x_17ultraplonk_no_std23generate_zeta_challengeNtNtB2_15curvehooks_impl14CurveHooksImplEB2_
FNDA:1,_RINvCs7j5G3H6G69x_17ultraplonk_no_std35compute_lagrange_and_vanishing_polyNtNtB2_15curvehooks_impl14CurveHooksImplEB2_
FNDA:1,_RINvCs7j5G3H6G69x_17ultraplonk_no_std37compute_permutation_widget_evaluationNtNtB2_15curvehooks_impl14CurveHooksImplEB2_
FNDA:1,_RINvCs7j5G3H6G69x_17ultraplonk_no_std33compute_plookup_widget_evaluationNtNtB2_15curvehooks_impl14CurveHooksImplEB2_
FNDA:1,_RINvCs7j5G3H6G69x_17ultraplonk_no_std36compute_arithmetic_widget_evaluationNtNtB2_15curvehooks_impl14CurveHooksImplEB2_
FNDA:1,_RINvCs7j5G3H6G69x_17ultraplonk_no_std37compute_genpermsort_widget_evaluationNtNtB2_15curvehooks_impl14CurveHooksImplEB2_
FNDA:1,_RINvCs7j5G3H6G69x_17ultraplonk_no_std34compute_elliptic_widget_evaluationNtNtB2_15curvehooks_impl14CurveHooksImplEB2_
FNDA:1,_RINvCs7j5G3H6G69x_17ultraplonk_no_std39compute_aux_non_native_field_evaluationNtNtB2_15curvehooks_impl14CurveHooksImplEB2_
FNDA:1,_RINvCs7j5G3H6G69x_17ultraplonk_no_std39compute_aux_limb_accumulator_evaluationNtNtB2_15curvehooks_impl14CurveHooksImplEB2_
FNDA:1,_RINvCs7j5G3H6G69x_17ultraplonk_no_std38compute_aux_ram_consistency_evaluationNtNtB2_15curvehooks_impl14CurveHooksImplEB2_
FNDA:1,_RINvCs7j5G3H6G69x_17ultraplonk_no_std26compute_auxiliary_identityNtNtB2_15curvehooks_impl14CurveHooksImplEB2_
FNDA:1,_RINvCs7j5G3H6G69x_17ultraplonk_no_std35compute_auxiliary_widget_evaluationNtNtB2_15curvehooks_impl14CurveHooksImplEB2_
FNDA:1,_RINvCs7j5G3H6G69x_17ultraplonk_no_std20perform_final_checksNtNtB2_15curvehooks_impl14CurveHooksImplEB2_
FNDA:1,_RINvCs7j5G3H6G69x_17ultraplonk_no_std42compute_batch_evaluation_scalar_multiplierNtNtB2_15curvehooks_impl14CurveHooksImplEB2_
FNF:36
FNH:35
DA:75,13
DA:76,13
DA:77,13
DA:78,13
DA:79,13
DA:80,13
DA:81,13
DA:82,13
DA:83,13
DA:84,13
DA:85,13
DA:86,13
DA:87,13
DA:88,13
DA:89,66
DA:90,53
DA:91,53
DA:92,53
DA:95,13
DA:96,13
DA:97,13
DA:98,13
DA:99,13
DA:100,13
DA:101,13
DA:102,13
DA:103,13
DA:104,13
DA:105,13
DA:106,13
DA:107,13
DA:108,13
DA:118,12
DA:119,12
DA:120,12
DA:122,12
DA:123,12
DA:124,12
DA:125,12
DA:126,12
DA:127,12
DA:128,12
DA:129,12
DA:130,12
DA:131,12
DA:132,12
DA:133,12
DA:134,12
DA:135,12
DA:136,12
DA:137,12
DA:138,12
DA:139,12
DA:140,12
DA:141,12
DA:142,12
DA:143,12
DA:144,12
DA:145,12
DA:146,12
DA:147,12
DA:148,12
DA:149,12
DA:150,12
DA:151,12
DA:152,12
DA:153,12
DA:154,12
DA:155,12
DA:156,12
DA:157,12
DA:158,12
DA:159,12
DA:160,12
DA:161,12
DA:162,12
DA:163,12
DA:164,12
DA:165,12
DA:166,12
DA:167,12
DA:168,12
DA:169,12
DA:170,12
DA:171,12
DA:172,12
DA:173,12
DA:175,12
DA:176,360
DA:177,360
DA:178,12
DA:180,348
DA:181,348
DA:182,348
DA:183,348
DA:184,348
DA:185,348
DA:187,360
DA:188,12
DA:190,12
DA:191,12
DA:192,12
DA:193,12
DA:194,12
DA:195,12
DA:196,12
DA:197,12
DA:198,12
DA:199,12
DA:200,12
DA:201,12
DA:203,12
DA:204,12
DA:205,12
DA:206,12
DA:207,12
DA:208,12
DA:209,0
DA:210,12
DA:211,12
DA:212,12
DA:213,12
DA:214,12
DA:215,12
DA:216,12
DA:217,12
DA:228,16
DA:229,16
DA:230,16
DA:231,16
DA:232,16
DA:233,15
DA:234,16
DA:235,15
DA:237,15
DA:239,14
DA:240,13
DA:241,13
DA:242,13
DA:243,13
DA:244,13
DA:245,13
DA:246,16
DA:248,13
DA:249,13
DA:250,13
DA:251,13
DA:252,13
DA:253,13
DA:254,13
DA:255,13
DA:256,13
DA:257,13
DA:258,13
DA:259,13
DA:260,13
DA:261,13
DA:262,13
DA:263,13
DA:264,13
DA:265,13
DA:266,13
DA:267,13
DA:272,12
DA:273,13
DA:276,12
DA:277,12
DA:278,12
DA:279,12
DA:280,12
DA:281,12
DA:282,12
DA:283,12
DA:284,12
DA:285,12
DA:286,12
DA:287,12
DA:288,12
DA:289,12
DA:290,12
DA:291,12
DA:292,12
DA:293,12
DA:294,12
DA:295,12
DA:296,12
DA:297,12
DA:298,12
DA:299,12
DA:300,12
DA:301,12
DA:302,12
DA:303,12
DA:304,12
DA:305,12
DA:306,12
DA:307,12
DA:308,12
DA:309,12
DA:310,12
DA:311,12
DA:312,12
DA:313,12
DA:314,12
DA:315,12
DA:316,12
DA:317,12
DA:318,12
DA:319,12
DA:320,12
DA:321,12
DA:322,12
DA:323,12
DA:324,12
DA:325,12
DA:326,12
DA:327,12
DA:328,12
DA:329,12
DA:330,12
DA:331,12
DA:332,12
DA:333,12
DA:334,12
DA:335,12
DA:336,12
DA:337,12
DA:340,12
DA:341,12
DA:344,12
DA:345,12
DA:347,0
DA:349,13
DA:351,14
DA:352,14
DA:353,14
DA:354,14
DA:355,14
DA:356,1
DA:357,1
DA:358,1
DA:359,1
DA:360,1
DA:361,1
DA:362,1
DA:364,13
DA:366,14
DA:369,13
DA:370,13
DA:371,13
DA:372,13
DA:373,13
DA:374,13
DA:375,13
DA:378,13
DA:379,13
DA:380,13
DA:381,13
DA:382,13
DA:383,13
DA:384,13
DA:385,13
DA:386,26
DA:387,13
DA:388,13
DA:389,13
DA:390,13
DA:391,13
DA:392,13
DA:393,13
DA:394,13
DA:395,13
DA:396,13
DA:397,13
DA:400,13
DA:401,13
DA:402,13
DA:403,13
DA:404,13
DA:405,13
DA:406,13
DA:407,13
DA:408,13
DA:409,13
DA:412,13
DA:413,13
DA:414,13
DA:415,13
DA:416,13
DA:417,13
DA:418,13
DA:421,13
DA:422,13
DA:423,13
DA:424,13
DA:425,13
DA:426,13
DA:427,13
DA:428,13
DA:429,13
DA:430,13
DA:433,13
DA:434,13
DA:435,13
DA:436,13
DA:437,13
DA:438,13
DA:439,13
DA:440,13
DA:441,13
DA:442,13
DA:443,13
DA:444,13
DA:445,13
DA:446,13
DA:450,13
DA:451,13
DA:452,13
DA:453,13
DA:454,13
DA:455,13
DA:456,13
DA:457,13
DA:458,13
DA:459,13
DA:460,13
DA:461,13
DA:462,13
DA:463,13
DA:465,26
DA:466,13
DA:467,13
DA:468,13
DA:469,13
DA:470,13
DA:471,13
DA:472,13
DA:473,13
DA:475,13
DA:476,1
DA:477,1
DA:478,1
DA:479,12
DA:480,12
DA:481,12
DA:482,13
DA:486,12
DA:487,12
DA:488,12
DA:489,12
DA:490,12
DA:491,12
DA:492,61
DA:493,49
DA:494,49
DA:495,49
DA:497,12
DA:498,12
DA:499,12
DA:500,12
DA:501,12
DA:502,12
DA:503,12
DA:504,12
DA:506,12
DA:507,12
DA:508,12
DA:509,12
DA:510,12
DA:511,12
DA:512,12
DA:513,12
DA:514,12
DA:515,12
DA:516,12
DA:517,12
DA:518,12
DA:519,12
DA:520,12
DA:521,12
DA:522,12
DA:523,12
DA:524,12
DA:525,12
DA:526,12
DA:527,12
DA:528,12
DA:529,12
DA:530,12
DA:531,12
DA:532,12
DA:533,12
DA:534,12
DA:535,12
DA:536,12
DA:537,12
DA:538,12
DA:539,12
DA:540,12
DA:541,12
DA:542,12
DA:543,12
DA:544,12
DA:545,12
DA:546,12
DA:547,12
DA:548,12
DA:549,12
DA:550,12
DA:551,12
DA:552,12
DA:553,12
DA:554,12
DA:555,12
DA:556,12
DA:557,12
DA:558,12
DA:559,12
DA:560,12
DA:561,12
DA:562,12
DA:563,12
DA:565,12
DA:566,12
DA:567,12
DA:568,12
DA:569,12
DA:570,12
DA:571,12
DA:572,12
DA:573,12
DA:574,12
DA:575,12
DA:576,12
DA:577,12
DA:578,12
DA:579,12
DA:580,12
DA:581,12
DA:582,12
DA:583,12
DA:584,12
DA:585,12
DA:586,12
DA:587,12
DA:588,12
DA:589,12
DA:590,12
DA:591,12
DA:592,12
DA:593,12
DA:594,12
DA:595,12
DA:596,12
DA:597,12
DA:598,12
DA:599,12
DA:600,12
DA:601,12
DA:602,12
DA:603,12
DA:604,12
DA:606,12
DA:607,12
DA:608,12
DA:609,12
DA:610,12
DA:611,12
DA:612,12
DA:613,12
DA:614,12
DA:615,12
DA:616,12
DA:617,12
DA:618,12
DA:619,12
DA:620,12
DA:621,12
DA:622,12
DA:623,12
DA:624,12
DA:625,12
DA:626,12
DA:627,12
DA:628,12
DA:629,12
DA:630,12
DA:631,12
DA:632,12
DA:633,12
DA:634,12
DA:635,12
DA:636,12
DA:637,12
DA:638,12
DA:639,12
DA:640,12
DA:641,12
DA:642,12
DA:643,12
DA:644,12
DA:645,12
DA:646,12
DA:647,12
DA:648,12
DA:649,12
DA:650,12
DA:651,12
DA:652,12
DA:653,12
DA:654,12
DA:655,12
DA:657,12
DA:658,12
DA:659,12
DA:660,12
DA:661,12
DA:662,12
DA:663,12
DA:664,12
DA:665,12
DA:666,12
DA:667,12
DA:668,12
DA:669,12
DA:670,12
DA:671,12
DA:672,12
DA:673,12
DA:674,12
DA:675,12
DA:676,12
DA:677,12
DA:678,12
DA:679,12
DA:680,12
DA:681,12
DA:682,12
DA:683,12
DA:684,12
DA:685,12
DA:686,12
DA:687,12
DA:688,12
DA:689,12
DA:690,12
DA:692,12
DA:693,12
DA:694,12
DA:695,12
DA:696,12
DA:697,12
DA:698,12
DA:699,12
DA:700,12
DA:701,12
DA:702,12
DA:703,12
DA:704,12
DA:705,12
DA:706,12
DA:707,12
DA:708,12
DA:709,12
DA:710,12
DA:711,12
DA:712,12
DA:713,12
DA:714,12
DA:715,12
DA:716,12
DA:717,12
DA:718,12
DA:719,12
DA:720,12
DA:721,12
DA:722,12
DA:723,12
DA:724,12
DA:725,12
DA:726,12
DA:727,12
DA:728,12
DA:729,12
DA:730,12
DA:732,12
DA:733,12
DA:734,12
DA:735,12
DA:736,12
DA:737,12
DA:738,12
DA:739,12
DA:740,12
DA:741,12
DA:742,12
DA:743,12
DA:744,12
DA:745,12
DA:746,12
DA:747,12
DA:748,12
DA:749,12
DA:750,12
DA:751,12
DA:752,12
DA:753,12
DA:754,12
DA:755,12
DA:756,12
DA:757,12
DA:758,12
DA:759,12
DA:760,12
DA:761,12
DA:762,12
DA:763,12
DA:764,12
DA:765,12
DA:766,12
DA:767,12
DA:768,12
DA:769,12
DA:770,12
DA:771,12
DA:772,12
DA:773,12
DA:774,12
DA:775,12
DA:776,12
DA:777,12
DA:778,12
DA:779,12
DA:780,12
DA:781,12
DA:782,12
DA:783,12
DA:784,12
DA:785,12
DA:786,12
DA:787,12
DA:788,12
DA:789,12
DA:790,12
DA:791,12
DA:793,12
DA:794,12
DA:795,12
DA:796,12
DA:797,12
DA:798,12
DA:799,12
DA:800,12
DA:801,12
DA:802,12
DA:803,12
DA:804,12
DA:805,12
DA:806,12
DA:807,12
DA:808,12
DA:809,12
DA:810,12
DA:811,12
DA:812,12
DA:813,12
DA:814,12
DA:815,12
DA:816,12
DA:817,12
DA:818,12
DA:819,12
DA:821,12
DA:822,12
DA:823,12
DA:824,12
DA:825,12
DA:826,12
DA:827,12
DA:828,12
DA:829,12
DA:830,12
DA:831,12
DA:832,12
DA:833,12
DA:834,12
DA:835,12
DA:836,12
DA:837,12
DA:838,12
DA:839,12
DA:840,12
DA:841,12
DA:842,12
DA:843,12
DA:844,12
DA:845,12
DA:847,12
DA:848,12
DA:849,12
DA:850,12
DA:851,12
DA:852,12
DA:853,12
DA:854,12
DA:855,12
DA:856,12
DA:857,12
DA:858,12
DA:859,12
DA:860,12
DA:861,12
DA:862,12
DA:863,12
DA:864,12
DA:865,12
DA:866,12
DA:867,12
DA:868,12
DA:869,12
DA:870,12
DA:871,12
DA:872,12
DA:873,12
DA:874,12
DA:875,12
DA:876,12
DA:877,12
DA:878,12
DA:879,12
DA:880,12
DA:881,12
DA:882,12
DA:883,12
DA:884,12
DA:885,12
DA:886,12
DA:888,12
DA:889,12
DA:890,12
DA:891,12
DA:892,12
DA:893,12
DA:894,12
DA:895,12
DA:896,12
DA:897,12
DA:898,12
DA:899,12
DA:900,12
DA:901,12
DA:902,12
DA:903,12
DA:904,12
DA:905,12
DA:906,12
DA:907,12
DA:908,12
DA:909,12
DA:910,12
DA:911,12
DA:912,12
DA:913,12
DA:914,12
DA:915,12
DA:916,12
DA:917,12
DA:918,12
DA:919,12
DA:920,12
DA:922,12
DA:923,12
DA:924,12
DA:925,12
DA:926,12
DA:927,12
DA:928,12
DA:929,12
DA:930,12
DA:931,12
DA:932,12
DA:933,12
DA:934,12
DA:935,12
DA:936,12
DA:937,12
DA:938,12
DA:939,12
DA:940,12
DA:941,12
DA:942,12
DA:943,12
DA:944,12
DA:945,12
DA:946,12
DA:947,12
DA:948,12
DA:949,12
DA:950,12
DA:951,12
DA:952,12
DA:953,12
DA:954,12
DA:955,12
DA:956,12
DA:957,12
DA:958,12
DA:959,12
DA:960,12
DA:961,12
DA:962,12
DA:963,12
DA:964,12
DA:965,12
DA:966,12
DA:967,12
DA:968,12
DA:969,12
DA:970,12
DA:971,12
DA:972,12
DA:973,12
DA:974,12
DA:975,12
DA:976,12
DA:977,12
DA:979,12
DA:980,12
DA:981,12
DA:982,12
DA:983,12
DA:984,12
DA:985,12
DA:986,12
DA:987,12
DA:988,12
DA:989,12
DA:990,12
DA:991,12
DA:992,12
DA:993,12
DA:994,12
DA:995,12
DA:997,12
DA:998,12
DA:999,12
DA:1000,12
DA:1001,12
DA:1002,12
DA:1003,12
DA:1004,12
DA:1005,12
DA:1006,12
DA:1007,12
DA:1008,12
DA:1009,12
DA:1010,12
DA:1011,12
DA:1012,12
DA:1013,12
DA:1014,12
DA:1015,12
DA:1016,12
DA:1017,12
DA:1018,12
DA:1019,12
DA:1020,12
DA:1021,12
DA:1022,12
DA:1023,12
DA:1024,12
DA:1025,12
DA:1026,12
DA:1027,12
DA:1028,12
DA:1029,12
DA:1030,12
DA:1031,12
DA:1032,12
DA:1033,12
DA:1034,12
DA:1035,12
DA:1036,12
DA:1037,12
DA:1038,12
DA:1039,12
DA:1040,12
DA:1041,12
DA:1042,12
DA:1043,12
DA:1044,12
DA:1045,12
DA:1046,12
DA:1047,12
DA:1048,12
DA:1049,12
DA:1050,12
DA:1051,12
DA:1052,12
DA:1053,12
DA:1054,12
DA:1055,12
DA:1056,12
DA:1057,12
DA:1058,12
DA:1059,12
DA:1060,12
DA:1061,12
DA:1062,12
DA:1063,12
DA:1064,12
DA:1065,12
DA:1066,12
DA:1067,12
DA:1068,12
DA:1069,12
DA:1070,12
DA:1071,12
DA:1072,12
DA:1073,12
DA:1074,12
DA:1075,12
DA:1076,12
DA:1077,12
DA:1078,12
DA:1079,12
DA:1080,12
DA:1081,12
DA:1082,12
DA:1083,12
DA:1084,12
DA:1085,12
DA:1086,12
DA:1087,12
DA:1088,12
DA:1089,12
DA:1090,12
DA:1091,12
DA:1092,12
DA:1093,12
DA:1094,12
DA:1095,12
DA:1096,12
DA:1097,12
DA:1098,12
DA:1099,12
DA:1100,12
DA:1101,12
DA:1102,12
DA:1103,12
DA:1104,12
DA:1105,12
DA:1106,12
DA:1107,12
DA:1108,12
DA:1109,12
DA:1110,12
DA:1111,12
DA:1112,12
DA:1113,12
DA:1114,12
DA:1115,12
DA:1116,12
DA:1117,12
DA:1120,12
DA:1121,12
DA:1122,12
DA:1123,12
DA:1124,12
DA:1125,12
DA:1126,12
DA:1127,12
DA:1128,12
DA:1129,12
DA:1130,12
DA:1131,12
DA:1132,12
DA:1133,12
DA:1134,12
DA:1135,12
DA:1136,12
DA:1137,12
DA:1138,12
DA:1139,12
DA:1140,12
DA:1141,12
DA:1142,12
DA:1143,12
DA:1144,12
DA:1145,12
DA:1146,12
DA:1147,12
DA:1148,12
DA:1149,12
DA:1150,12
DA:1151,12
DA:1152,12
DA:1153,12
DA:1154,12
DA:1155,12
DA:1156,12
DA:1157,12
DA:1158,12
DA:1159,12
DA:1160,12
DA:1161,12
DA:1162,12
DA:1163,12
DA:1164,12
DA:1165,12
DA:1166,12
DA:1167,12
DA:1168,12
DA:1169,12
DA:1170,12
DA:1171,12
DA:1172,12
BRF:0
BRH:0
LF:1023
LH:1020
end_of_record
SF:/home/dimitris/my_repos/temp4/ultraplonk_verifier/src/proof.rs
FN:117,_RINvNtCsk9ngD3d3DdK_17ultraplonk_no_std5proof13read_proof_g1NtNtB4_15curvehooks_impl14CurveHooksImplECska6KjoqsFU2_8noir_cli
FN:119,_RNCINvNtCsk9ngD3d3DdK_17ultraplonk_no_std5proof13read_proof_g1NtNtB6_15curvehooks_impl14CurveHooksImplE0Cska6KjoqsFU2_8noir_cli
FN:130,_RNCINvNtCsk9ngD3d3DdK_17ultraplonk_no_std5proof13read_proof_g1NtNtB6_15curvehooks_impl14CurveHooksImplEs_0Cska6KjoqsFU2_8noir_cli
FN:155,_RNvXNtCsk9ngD3d3DdK_17ultraplonk_no_std5proofINtB2_5ProofNtNtB4_15curvehooks_impl14CurveHooksImplEINtNtCsiAVgAqkjXtQ_4core7convert7TryFromRShE8try_fromCska6KjoqsFU2_8noir_cli
FN:25,_RNvMs2_NtCsk9ngD3d3DdK_17ultraplonk_no_std5proofINtB5_24IncorrectBufferSizeSnafuppE5buildB7_
FN:25,_RINvMs2_NtCsk9ngD3d3DdK_17ultraplonk_no_std5proofINtB6_24IncorrectBufferSizeSnafuppE4failpEB8_
FN:25,_RNvXININtCsk9ngD3d3DdK_17ultraplonk_no_std5proofs3_0ppEINtB5_24IncorrectBufferSizeSnafuppEINtCsi5jKAOe9cvS_5snafu9IntoErrorNtB5_10ProofErrorE10into_errorB7_
FN:25,_RNvMs4_NtCsk9ngD3d3DdK_17ultraplonk_no_std5proofINtB5_23InvalidSliceLengthSnafuppE5buildB7_
FN:25,_RINvMs4_NtCsk9ngD3d3DdK_17ultraplonk_no_std5proofINtB6_23InvalidSliceLengthSnafuppE4failpEB8_
FN:25,_RNvXININtCsk9ngD3d3DdK_17ultraplonk_no_std5proofs5_0ppEINtB5_23InvalidSliceLengthSnafuppEINtCsi5jKAOe9cvS_5snafu9IntoErrorNtB5_10ProofErrorE10into_errorB7_
FN:25,_RNvMs6_NtCsk9ngD3d3DdK_17ultraplonk_no_std5proofNtB5_20PointNotOnCurveSnafu5build
FN:25,_RINvMs6_NtCsk9ngD3d3DdK_17ultraplonk_no_std5proofNtB6_20PointNotOnCurveSnafu4failpEB8_
FN:25,_RNvMs8_NtCsk9ngD3d3DdK_17ultraplonk_no_std5proofNtB5_14NotMemberSnafu5build
FN:25,_RINvMs8_NtCsk9ngD3d3DdK_17ultraplonk_no_std5proofNtB6_14NotMemberSnafu4failpEB8_
FN:25,_RNvMsa_NtCsk9ngD3d3DdK_17ultraplonk_no_std5proofNtB5_10OtherSnafu5build
FN:25,_RINvMsa_NtCsk9ngD3d3DdK_17ultraplonk_no_std5proofNtB6_10OtherSnafu4failpEB8_
FN:117,_RINvNtCsk9ngD3d3DdK_17ultraplonk_no_std5proof13read_proof_g1pEB4_
FN:119,_RNCINvNtCsk9ngD3d3DdK_17ultraplonk_no_std5proof13read_proof_g1pE0B6_
FN:130,_RNCINvNtCsk9ngD3d3DdK_17ultraplonk_no_std5proof13read_proof_g1pEs_0B6_
FN:155,_RNvXININtCsk9ngD3d3DdK_17ultraplonk_no_std5proof0pEINtB5_5ProofpEINtNtCsiAVgAqkjXtQ_4core7convert7TryFromRShE8try_fromB7_
FN:135,_RNvNtCsk9ngD3d3DdK_17ultraplonk_no_std5proof13read_proof_fq
FN:25,_RNvXs7_NtCsk9ngD3d3DdK_17ultraplonk_no_std5proofNtB5_20PointNotOnCurveSnafuINtCsi5jKAOe9cvS_5snafu9IntoErrorNtB5_10ProofErrorE10into_error
FN:25,_RNvXs9_NtCsk9ngD3d3DdK_17ultraplonk_no_std5proofNtB5_14NotMemberSnafuINtCsi5jKAOe9cvS_5snafu9IntoErrorNtB5_10ProofErrorE10into_error
FN:25,_RNvXsb_NtCsk9ngD3d3DdK_17ultraplonk_no_std5proofNtB5_10OtherSnafuINtCsi5jKAOe9cvS_5snafu9IntoErrorNtB5_10ProofErrorE10into_error
FN:25,_RNvXsc_NtCsk9ngD3d3DdK_17ultraplonk_no_std5proofNtB5_10ProofErrorNtNtCsiAVgAqkjXtQ_4core3fmt7Display3fmt
FN:25,_RNvXsd_NtCsk9ngD3d3DdK_17ultraplonk_no_std5proofNtB5_10ProofErrorNtNtCsi5jKAOe9cvS_5snafu14fallback_error5Error11description
FN:25,_RNvXsd_NtCsk9ngD3d3DdK_17ultraplonk_no_std5proofNtB5_10ProofErrorNtNtCsi5jKAOe9cvS_5snafu14fallback_error5Error5cause
FN:25,_RNvXsd_NtCsk9ngD3d3DdK_17ultraplonk_no_std5proofNtB5_10ProofErrorNtNtCsi5jKAOe9cvS_5snafu14fallback_error5Error6source
FN:25,_RNvXse_NtCsk9ngD3d3DdK_17ultraplonk_no_std5proofNtB5_10ProofErrorNtCsi5jKAOe9cvS_5snafu11ErrorCompat9backtrace
FN:137,_RNCNvNtCsk9ngD3d3DdK_17ultraplonk_no_std5proof13read_proof_fq0B5_
FN:147,_RNCNvNtCsk9ngD3d3DdK_17ultraplonk_no_std5proof13read_proof_fqs_0B5_
FN:117,_RINvNtCs7j5G3H6G69x_17ultraplonk_no_std5proof13read_proof_g1NtNtB4_15curvehooks_impl14CurveHooksImplEB4_
FN:119,_RNCINvNtCs7j5G3H6G69x_17ultraplonk_no_std5proof13read_proof_g1NtNtB6_15curvehooks_impl14CurveHooksImplE0B6_
FN:130,_RNCINvNtCs7j5G3H6G69x_17ultraplonk_no_std5proof13read_proof_g1NtNtB6_15curvehooks_impl14CurveHooksImplEs_0B6_
FN:137,_RNCNvNtCs7j5G3H6G69x_17ultraplonk_no_std5proof13read_proof_fq0B5_
FN:147,_RNCNvNtCs7j5G3H6G69x_17ultraplonk_no_std5proof13read_proof_fqs_0B5_
FN:155,_RNvXNtCs7j5G3H6G69x_17ultraplonk_no_std5proofINtB2_5ProofNtNtB4_15curvehooks_impl14CurveHooksImplEINtNtCsiAVgAqkjXtQ_4core7convert7TryFromRShE8try_fromB4_
FN:25,_RNvMs2_NtCs7j5G3H6G69x_17ultraplonk_no_std5proofINtB5_24IncorrectBufferSizeSnafuppE5buildB7_
FN:25,_RINvMs2_NtCs7j5G3H6G69x_17ultraplonk_no_std5proofINtB6_24IncorrectBufferSizeSnafuppE4failpEB8_
FN:25,_RNvXININtCs7j5G3H6G69x_17ultraplonk_no_std5proofs3_0ppEINtB5_24IncorrectBufferSizeSnafuppEINtCsi5jKAOe9cvS_5snafu9IntoErrorNtB5_10ProofErrorE10into_errorB7_
FN:25,_RNvMs4_NtCs7j5G3H6G69x_17ultraplonk_no_std5proofINtB5_23InvalidSliceLengthSnafuppE5buildB7_
FN:25,_RINvMs4_NtCs7j5G3H6G69x_17ultraplonk_no_std5proofINtB6_23InvalidSliceLengthSnafuppE4failpEB8_
FN:25,_RNvXININtCs7j5G3H6G69x_17ultraplonk_no_std5proofs5_0ppEINtB5_23InvalidSliceLengthSnafuppEINtCsi5jKAOe9cvS_5snafu9IntoErrorNtB5_10ProofErrorE10into_errorB7_
FN:25,_RNvMs6_NtCs7j5G3H6G69x_17ultraplonk_no_std5proofNtB5_20PointNotOnCurveSnafu5build
FN:25,_RINvMs6_NtCs7j5G3H6G69x_17ultraplonk_no_std5proofNtB6_20PointNotOnCurveSnafu4failpEB8_
FN:25,_RNvXs7_NtCs7j5G3H6G69x_17ultraplonk_no_std5proofNtB5_20PointNotOnCurveSnafuINtCsi5jKAOe9cvS_5snafu9IntoErrorNtB5_10ProofErrorE10into_error
FN:25,_RNvMs8_NtCs7j5G3H6G69x_17ultraplonk_no_std5proofNtB5_14NotMemberSnafu5build
FN:25,_RINvMs8_NtCs7j5G3H6G69x_17ultraplonk_no_std5proofNtB6_14NotMemberSnafu4failpEB8_
FN:25,_RNvXs9_NtCs7j5G3H6G69x_17ultraplonk_no_std5proofNtB5_14NotMemberSnafuINtCsi5jKAOe9cvS_5snafu9IntoErrorNtB5_10ProofErrorE10into_error
FN:25,_RNvMsa_NtCs7j5G3H6G69x_17ultraplonk_no_std5proofNtB5_10OtherSnafu5build
FN:25,_RINvMsa_NtCs7j5G3H6G69x_17ultraplonk_no_std5proofNtB6_10OtherSnafu4failpEB8_
FN:25,_RNvXsb_NtCs7j5G3H6G69x_17ultraplonk_no_std5proofNtB5_10OtherSnafuINtCsi5jKAOe9cvS_5snafu9IntoErrorNtB5_10ProofErrorE10into_error
FN:25,_RNvXsc_NtCs7j5G3H6G69x_17ultraplonk_no_std5proofNtB5_10ProofErrorNtNtCsiAVgAqkjXtQ_4core3fmt7Display3fmt
FN:25,_RNvXsd_NtCs7j5G3H6G69x_17ultraplonk_no_std5proofNtB5_10ProofErrorNtNtCsi5jKAOe9cvS_5snafu14fallback_error5Error11description
FN:25,_RNvXsd_NtCs7j5G3H6G69x_17ultraplonk_no_std5proofNtB5_10ProofErrorNtNtCsi5jKAOe9cvS_5snafu14fallback_error5Error5cause
FN:25,_RNvXsd_NtCs7j5G3H6G69x_17ultraplonk_no_std5proofNtB5_10ProofErrorNtNtCsi5jKAOe9cvS_5snafu14fallback_error5Error6source
FN:25,_RNvXse_NtCs7j5G3H6G69x_17ultraplonk_no_std5proofNtB5_10ProofErrorNtCsi5jKAOe9cvS_5snafu11ErrorCompat9backtrace
FN:135,_RNvNtCs7j5G3H6G69x_17ultraplonk_no_std5proof13read_proof_fq
FN:298,_RNvMNtNtCs7j5G3H6G69x_17ultraplonk_no_std5proof6shouldNtB2_11valid_proof3get
FN:298,_RNvMNtNtCs7j5G3H6G69x_17ultraplonk_no_std5proof6shouldNtB2_11valid_proof7default
FN:298,_RNvNtNtCs7j5G3H6G69x_17ultraplonk_no_std5proof6should11valid_proof
FN:373,_RNvNtNtCs7j5G3H6G69x_17ultraplonk_no_std5proof6shoulds_38successfully_parse_a_well_formed_proof
FN:373,_RNvNvNtNtCs7j5G3H6G69x_17ultraplonk_no_std5proof6shoulds_38successfully_parse_a_well_formed_proof38successfully_parse_a_well_formed_proof
FN:381,_RNvNtNtNtCs7j5G3H6G69x_17ultraplonk_no_std5proof6should6rejects_27a_proof_from_a_short_buffer
FN:381,_RNvNvNtNtNtCs7j5G3H6G69x_17ultraplonk_no_std5proof6should6rejects_27a_proof_from_a_short_buffer27a_proof_from_a_short_buffer
FN:393,_RNvNtNtNtCs7j5G3H6G69x_17ultraplonk_no_std5proof6should6rejects_33a_proof_with_a_point_not_on_curve
FN:393,_RNvNvNtNtNtCs7j5G3H6G69x_17ultraplonk_no_std5proof6should6rejects_33a_proof_with_a_point_not_on_curve33a_proof_with_a_point_not_on_curve
FNDA:143,_RINvNtCsk9ngD3d3DdK_17ultraplonk_no_std5proof13read_proof_g1NtNtB4_15curvehooks_impl14CurveHooksImplECska6KjoqsFU2_8noir_cli
FNDA:0,_RNCINvNtCsk9ngD3d3DdK_17ultraplonk_no_std5proof13read_proof_g1NtNtB6_15curvehooks_impl14CurveHooksImplE0Cska6KjoqsFU2_8noir_cli
FNDA:143,_RNCINvNtCsk9ngD3d3DdK_17ultraplonk_no_std5proof13read_proof_g1NtNtB6_15curvehooks_impl14CurveHooksImplEs_0Cska6KjoqsFU2_8noir_cli
FNDA:11,_RNvXNtCsk9ngD3d3DdK_17ultraplonk_no_std5proofINtB2_5ProofNtNtB4_15curvehooks_impl14CurveHooksImplEINtNtCsiAVgAqkjXtQ_4core7convert7TryFromRShE8try_fromCska6KjoqsFU2_8noir_cli
FNDA:0,_RNvMs2_NtCsk9ngD3d3DdK_17ultraplonk_no_std5proofINtB5_24IncorrectBufferSizeSnafuppE5buildB7_
FNDA:0,_RINvMs2_NtCsk9ngD3d3DdK_17ultraplonk_no_std5proofINtB6_24IncorrectBufferSizeSnafuppE4failpEB8_
FNDA:0,_RNvXININtCsk9ngD3d3DdK_17ultraplonk_no_std5proofs3_0ppEINtB5_24IncorrectBufferSizeSnafuppEINtCsi5jKAOe9cvS_5snafu9IntoErrorNtB5_10ProofErrorE10into_errorB7_
FNDA:0,_RNvMs4_NtCsk9ngD3d3DdK_17ultraplonk_no_std5proofINtB5_23InvalidSliceLengthSnafuppE5buildB7_
FNDA:0,_RINvMs4_NtCsk9ngD3d3DdK_17ultraplonk_no_std5proofINtB6_23InvalidSliceLengthSnafuppE4failpEB8_
FNDA:0,_RNvXININtCsk9ngD3d3DdK_17ultraplonk_no_std5proofs5_0ppEINtB5_23InvalidSliceLengthSnafuppEINtCsi5jKAOe9cvS_5snafu9IntoErrorNtB5_10ProofErrorE10into_errorB7_
FNDA:0,_RNvMs6_NtCsk9ngD3d3DdK_17ultraplonk_no_std5proofNtB5_20PointNotOnCurveSnafu5build
FNDA:0,_RINvMs6_NtCsk9ngD3d3DdK_17ultraplonk_no_std5proofNtB6_20PointNotOnCurveSnafu4failpEB8_
FNDA:0,_RNvMs8_NtCsk9ngD3d3DdK_17ultraplonk_no_std5proofNtB5_14NotMemberSnafu5build
FNDA:0,_RINvMs8_NtCsk9ngD3d3DdK_17ultraplonk_no_std5proofNtB6_14NotMemberSnafu4failpEB8_
FNDA:0,_RNvMsa_NtCsk9ngD3d3DdK_17ultraplonk_no_std5proofNtB5_10OtherSnafu5build
FNDA:0,_RINvMsa_NtCsk9ngD3d3DdK_17ultraplonk_no_std5proofNtB6_10OtherSnafu4failpEB8_
FNDA:0,_RINvNtCsk9ngD3d3DdK_17ultraplonk_no_std5proof13read_proof_g1pEB4_
FNDA:0,_RNCINvNtCsk9ngD3d3DdK_17ultraplonk_no_std5proof13read_proof_g1pE0B6_
FNDA:0,_RNCINvNtCsk9ngD3d3DdK_17ultraplonk_no_std5proof13read_proof_g1pEs_0B6_
FNDA:0,_RNvXININtCsk9ngD3d3DdK_17ultraplonk_no_std5proof0pEINtB5_5ProofpEINtNtCsiAVgAqkjXtQ_4core7convert7TryFromRShE8try_fromB7_
FNDA:451,_RNvNtCsk9ngD3d3DdK_17ultraplonk_no_std5proof13read_proof_fq
FNDA:0,_RNvXs7_NtCsk9ngD3d3DdK_17ultraplonk_no_std5proofNtB5_20PointNotOnCurveSnafuINtCsi5jKAOe9cvS_5snafu9IntoErrorNtB5_10ProofErrorE10into_error
FNDA:0,_RNvXs9_NtCsk9ngD3d3DdK_17ultraplonk_no_std5proofNtB5_14NotMemberSnafuINtCsi5jKAOe9cvS_5snafu9IntoErrorNtB5_10ProofErrorE10into_error
FNDA:0,_RNvXsb_NtCsk9ngD3d3DdK_17ultraplonk_no_std5proofNtB5_10OtherSnafuINtCsi5jKAOe9cvS_5snafu9IntoErrorNtB5_10ProofErrorE10into_error
FNDA:0,_RNvXsc_NtCsk9ngD3d3DdK_17ultraplonk_no_std5proofNtB5_10ProofErrorNtNtCsiAVgAqkjXtQ_4core3fmt7Display3fmt
FNDA:0,_RNvXsd_NtCsk9ngD3d3DdK_17ultraplonk_no_std5proofNtB5_10ProofErrorNtNtCsi5jKAOe9cvS_5snafu14fallback_error5Error11description
FNDA:0,_RNvXsd_NtCsk9ngD3d3DdK_17ultraplonk_no_std5proofNtB5_10ProofErrorNtNtCsi5jKAOe9cvS_5snafu14fallback_error5Error5cause
FNDA:0,_RNvXsd_NtCsk9ngD3d3DdK_17ultraplonk_no_std5proofNtB5_10ProofErrorNtNtCsi5jKAOe9cvS_5snafu14fallback_error5Error6source
FNDA:0,_RNvXse_NtCsk9ngD3d3DdK_17ultraplonk_no_std5proofNtB5_10ProofErrorNtCsi5jKAOe9cvS_5snafu11ErrorCompat9backtrace
FNDA:0,_RNCNvNtCsk9ngD3d3DdK_17ultraplonk_no_std5proof13read_proof_fq0B5_
FNDA:451,_RNCNvNtCsk9ngD3d3DdK_17ultraplonk_no_std5proof13read_proof_fqs_0B5_
FNDA:56,_RINvNtCs7j5G3H6G69x_17ultraplonk_no_std5proof13read_proof_g1NtNtB4_15curvehooks_impl14CurveHooksImplEB4_
FNDA:2,_RNCINvNtCs7j5G3H6G69x_17ultraplonk_no_std5proof13read_proof_g1NtNtB6_15curvehooks_impl14CurveHooksImplE0B6_
FNDA:54,_RNCINvNtCs7j5G3H6G69x_17ultraplonk_no_std5proof13read_proof_g1NtNtB6_15curvehooks_impl14CurveHooksImplEs_0B6_
FNDA:0,_RNCNvNtCs7j5G3H6G69x_17ultraplonk_no_std5proof13read_proof_fq0B5_
FNDA:164,_RNCNvNtCs7j5G3H6G69x_17ultraplonk_no_std5proof13read_proof_fqs_0B5_
FNDA:7,_RNvXNtCs7j5G3H6G69x_17ultraplonk_no_std5proofINtB2_5ProofNtNtB4_15curvehooks_impl14CurveHooksImplEINtNtCsiAVgAqkjXtQ_4core7convert7TryFromRShE8try_fromB4_
FNDA:0,_RNvMs2_NtCs7j5G3H6G69x_17ultraplonk_no_std5proofINtB5_24IncorrectBufferSizeSnafuppE5buildB7_
FNDA:0,_RINvMs2_NtCs7j5G3H6G69x_17ultraplonk_no_std5proofINtB6_24IncorrectBufferSizeSnafuppE4failpEB8_
FNDA:0,_RNvXININtCs7j5G3H6G69x_17ultraplonk_no_std5proofs3_0ppEINtB5_24IncorrectBufferSizeSnafuppEINtCsi5jKAOe9cvS_5snafu9IntoErrorNtB5_10ProofErrorE10into_errorB7_
FNDA:0,_RNvMs4_NtCs7j5G3H6G69x_17ultraplonk_no_std5proofINtB5_23InvalidSliceLengthSnafuppE5buildB7_
FNDA:0,_RINvMs4_NtCs7j5G3H6G69x_17ultraplonk_no_std5proofINtB6_23InvalidSliceLengthSnafuppE4failpEB8_
FNDA:0,_RNvXININtCs7j5G3H6G69x_17ultraplonk_no_std5proofs5_0ppEINtB5_23InvalidSliceLengthSnafuppEINtCsi5jKAOe9cvS_5snafu9IntoErrorNtB5_10ProofErrorE10into_errorB7_
FNDA:0,_RNvMs6_NtCs7j5G3H6G69x_17ultraplonk_no_std5proofNtB5_20PointNotOnCurveSnafu5build
FNDA:0,_RINvMs6_NtCs7j5G3H6G69x_17ultraplonk_no_std5proofNtB6_20PointNotOnCurveSnafu4failpEB8_
FNDA:0,_RNvXs7_NtCs7j5G3H6G69x_17ultraplonk_no_std5proofNtB5_20PointNotOnCurveSnafuINtCsi5jKAOe9cvS_5snafu9IntoErrorNtB5_10ProofErrorE10into_error
FNDA:0,_RNvMs8_NtCs7j5G3H6G69x_17ultraplonk_no_std5proofNtB5_14NotMemberSnafu5build
FNDA:0,_RINvMs8_NtCs7j5G3H6G69x_17ultraplonk_no_std5proofNtB6_14NotMemberSnafu4failpEB8_
FNDA:0,_RNvXs9_NtCs7j5G3H6G69x_17ultraplonk_no_std5proofNtB5_14NotMemberSnafuINtCsi5jKAOe9cvS_5snafu9IntoErrorNtB5_10ProofErrorE10into_error
FNDA:0,_RNvMsa_NtCs7j5G3H6G69x_17ultraplonk_no_std5proofNtB5_10OtherSnafu5build
FNDA:0,_RINvMsa_NtCs7j5G3H6G69x_17ultraplonk_no_std5proofNtB6_10OtherSnafu4failpEB8_
FNDA:0,_RNvXsb_NtCs7j5G3H6G69x_17ultraplonk_no_std5proofNtB5_10OtherSnafuINtCsi5jKAOe9cvS_5snafu9IntoErrorNtB5_10ProofErrorE10into_error
FNDA:0,_RNvXsc_NtCs7j5G3H6G69x_17ultraplonk_no_std5proofNtB5_10ProofErrorNtNtCsiAVgAqkjXtQ_4core3fmt7Display3fmt
FNDA:0,_RNvXsd_NtCs7j5G3H6G69x_17ultraplonk_no_std5proofNtB5_10ProofErrorNtNtCsi5jKAOe9cvS_5snafu14fallback_error5Error11description
FNDA:0,_RNvXsd_NtCs7j5G3H6G69x_17ultraplonk_no_std5proofNtB5_10ProofErrorNtNtCsi5jKAOe9cvS_5snafu14fallback_error5Error5cause
FNDA:0,_RNvXsd_NtCs7j5G3H6G69x_17ultraplonk_no_std5proofNtB5_10ProofErrorNtNtCsi5jKAOe9cvS_5snafu14fallback_error5Error6source
FNDA:0,_RNvXse_NtCs7j5G3H6G69x_17ultraplonk_no_std5proofNtB5_10ProofErrorNtCsi5jKAOe9cvS_5snafu11ErrorCompat9backtrace
FNDA:164,_RNvNtCs7j5G3H6G69x_17ultraplonk_no_std5proof13read_proof_fq
FNDA:3,_RNvMNtNtCs7j5G3H6G69x_17ultraplonk_no_std5proof6shouldNtB2_11valid_proof3get
FNDA:3,_RNvMNtNtCs7j5G3H6G69x_17ultraplonk_no_std5proof6shouldNtB2_11valid_proof7default
FNDA:3,_RNvNtNtCs7j5G3H6G69x_17ultraplonk_no_std5proof6should11valid_proof
FNDA:1,_RNvNtNtCs7j5G3H6G69x_17ultraplonk_no_std5proof6shoulds_38successfully_parse_a_well_formed_proof
FNDA:1,_RNvNvNtNtCs7j5G3H6G69x_17ultraplonk_no_std5proof6shoulds_38successfully_parse_a_well_formed_proof38successfully_parse_a_well_formed_proof
FNDA:1,_RNvNtNtNtCs7j5G3H6G69x_17ultraplonk_no_std5proof6should6rejects_27a_proof_from_a_short_buffer
FNDA:1,_RNvNvNtNtNtCs7j5G3H6G69x_17ultraplonk_no_std5proof6should6rejects_27a_proof_from_a_short_buffer27a_proof_from_a_short_buffer
FNDA:1,_RNvNtNtNtCs7j5G3H6G69x_17ultraplonk_no_std5proof6should6rejects_33a_proof_with_a_point_not_on_curve
FNDA:1,_RNvNvNtNtNtCs7j5G3H6G69x_17ultraplonk_no_std5proof6should6rejects_33a_proof_with_a_point_not_on_curve33a_proof_with_a_point_not_on_curve
FNF:16
FNH:13
DA:25,0
DA:117,199
DA:118,199
DA:119,199
DA:120,2
DA:123,0
DA:124,0
DA:125,0
DA:126,0
DA:127,0
DA:128,0
DA:129,199
DA:130,199
DA:131,197
DA:132,199
DA:133,199
DA:135,615
DA:136,615
DA:137,615
DA:138,0
DA:140,0
DA:141,0
DA:142,0
DA:143,0
DA:144,0
DA:145,0
DA:146,615
DA:147,615
DA:148,615
DA:149,615
DA:150,615
DA:155,18
DA:156,18
DA:157,1
DA:158,1
DA:159,1
DA:160,1
DA:161,17
DA:162,17
DA:163,17
DA:165,17
DA:166,16
DA:167,16
DA:168,15
DA:170,15
DA:171,15
DA:172,15
DA:174,15
DA:175,15
DA:176,15
DA:177,15
DA:179,15
DA:180,15
DA:181,15
DA:182,15
DA:184,15
DA:185,15
DA:186,15
DA:188,15
DA:189,15
DA:190,15
DA:191,15
DA:192,15
DA:193,15
DA:194,15
DA:195,15
DA:196,15
DA:197,15
DA:199,15
DA:200,15
DA:201,15
DA:202,15
DA:204,15
DA:205,15
DA:206,15
DA:207,15
DA:208,15
DA:210,15
DA:211,15
DA:212,15
DA:213,15
DA:215,15
DA:216,15
DA:217,15
DA:218,15
DA:220,15
DA:221,15
DA:222,15
DA:224,15
DA:225,15
DA:226,15
DA:227,15
DA:229,15
DA:230,15
DA:232,15
DA:233,15
DA:234,15
DA:235,15
DA:236,15
DA:237,15
DA:238,15
DA:239,15
DA:240,15
DA:241,15
DA:242,15
DA:243,15
DA:244,15
DA:245,15
DA:246,15
DA:247,15
DA:248,15
DA:249,15
DA:250,15
DA:251,15
DA:252,15
DA:253,15
DA:254,15
DA:255,15
DA:256,15
DA:257,15
DA:258,15
DA:259,15
DA:260,15
DA:261,15
DA:262,15
DA:263,15
DA:264,15
DA:265,15
DA:266,15
DA:267,15
DA:268,15
DA:269,15
DA:270,15
DA:271,15
DA:272,15
DA:273,15
DA:274,15
DA:275,15
DA:276,15
DA:277,15
DA:278,15
DA:279,15
DA:280,15
DA:281,15
DA:282,15
DA:283,15
DA:284,15
DA:285,15
DA:286,15
DA:287,15
DA:288,18
DA:298,9
DA:373,2
DA:381,2
DA:393,2
BRF:0
BRH:0
LF:167
LH:150
end_of_record
SF:/home/dimitris/my_repos/temp4/ultraplonk_verifier/src/should.rs
FN:21,_RNvMNtCs7j5G3H6G69x_17ultraplonk_no_std6shouldNtB2_11valid_proof3get
FN:21,_RNvMNtCs7j5G3H6G69x_17ultraplonk_no_std6shouldNtB2_11valid_proof7default
FN:21,_RNvNtCs7j5G3H6G69x_17ultraplonk_no_std6should11valid_proof
FN:96,_RNvMs_NtCs7j5G3H6G69x_17ultraplonk_no_std6shouldNtB4_8valid_vk3get
FN:96,_RNvMs_NtCs7j5G3H6G69x_17ultraplonk_no_std6shouldNtB4_8valid_vk7default
FN:96,_RNvNtCs7j5G3H6G69x_17ultraplonk_no_std6should8valid_vk
FN:155,_RNvMs0_NtCs7j5G3H6G69x_17ultraplonk_no_std6shouldNtB5_9valid_pub3get
FN:155,_RNvMs0_NtCs7j5G3H6G69x_17ultraplonk_no_std6shouldNtB5_9valid_pub7default
FN:155,_RNvNtCs7j5G3H6G69x_17ultraplonk_no_std6should9valid_pub
FN:162,_RNvNtCs7j5G3H6G69x_17ultraplonk_no_std6shoulds_18verify_valid_proof
FN:162,_RNvNvNtCs7j5G3H6G69x_17ultraplonk_no_std6shoulds_18verify_valid_proof18verify_valid_proof
FN:176,_RNvNtNtCs7j5G3H6G69x_17ultraplonk_no_std6should6rejects_13an_invalid_vk
FN:176,_RNvNvNtNtCs7j5G3H6G69x_17ultraplonk_no_std6should6rejects_13an_invalid_vk13an_invalid_vk
FN:186,_RNvNtNtCs7j5G3H6G69x_17ultraplonk_no_std6should6rejects_16an_invalid_proof
FN:186,_RNvNvNtNtCs7j5G3H6G69x_17ultraplonk_no_std6should6rejects_16an_invalid_proof16an_invalid_proof
FN:196,_RNvNtNtCs7j5G3H6G69x_17ultraplonk_no_std6should6rejects_20an_invalid_pub_input
FN:196,_RNvNvNtNtCs7j5G3H6G69x_17ultraplonk_no_std6should6rejects_20an_invalid_pub_input20an_invalid_pub_input
FN:210,_RNvNtNtCs7j5G3H6G69x_17ultraplonk_no_std6should6rejects_34a_public_input_with_invalid_length
FN:210,_RNvNvNtNtCs7j5G3H6G69x_17ultraplonk_no_std6should6rejects_34a_public_input_with_invalid_length34a_public_input_with_invalid_length
FNDA:4,_RNvMNtCs7j5G3H6G69x_17ultraplonk_no_std6shouldNtB2_11valid_proof3get
FNDA:4,_RNvMNtCs7j5G3H6G69x_17ultraplonk_no_std6shouldNtB2_11valid_proof7default
FNDA:4,_RNvNtCs7j5G3H6G69x_17ultraplonk_no_std6should11valid_proof
FNDA:4,_RNvMs_NtCs7j5G3H6G69x_17ultraplonk_no_std6shouldNtB4_8valid_vk3get
FNDA:4,_RNvMs_NtCs7j5G3H6G69x_17ultraplonk_no_std6shouldNtB4_8valid_vk7default
FNDA:4,_RNvNtCs7j5G3H6G69x_17ultraplonk_no_std6should8valid_vk
FNDA:3,_RNvMs0_NtCs7j5G3H6G69x_17ultraplonk_no_std6shouldNtB5_9valid_pub3get
FNDA:3,_RNvMs0_NtCs7j5G3H6G69x_17ultraplonk_no_std6shouldNtB5_9valid_pub7default
FNDA:3,_RNvNtCs7j5G3H6G69x_17ultraplonk_no_std6should9valid_pub
FNDA:1,_RNvNtCs7j5G3H6G69x_17ultraplonk_no_std6shoulds_18verify_valid_proof
FNDA:1,_RNvNvNtCs7j5G3H6G69x_17ultraplonk_no_std6shoulds_18verify_valid_proof18verify_valid_proof
FNDA:1,_RNvNtNtCs7j5G3H6G69x_17ultraplonk_no_std6should6rejects_13an_invalid_vk
FNDA:1,_RNvNvNtNtCs7j5G3H6G69x_17ultraplonk_no_std6should6rejects_13an_invalid_vk13an_invalid_vk
FNDA:1,_RNvNtNtCs7j5G3H6G69x_17ultraplonk_no_std6should6rejects_16an_invalid_proof
FNDA:1,_RNvNvNtNtCs7j5G3H6G69x_17ultraplonk_no_std6should6rejects_16an_invalid_proof16an_invalid_proof
FNDA:1,_RNvNtNtCs7j5G3H6G69x_17ultraplonk_no_std6should6rejects_20an_invalid_pub_input
FNDA:1,_RNvNvNtNtCs7j5G3H6G69x_17ultraplonk_no_std6should6rejects_20an_invalid_pub_input20an_invalid_pub_input
FNDA:1,_RNvNtNtCs7j5G3H6G69x_17ultraplonk_no_std6should6rejects_34a_public_input_with_invalid_length
FNDA:1,_RNvNvNtNtCs7j5G3H6G69x_17ultraplonk_no_std6should6rejects_34a_public_input_with_invalid_length34a_public_input_with_invalid_length
FNF:13
FNH:13
DA:21,12
DA:96,12
DA:155,9
DA:162,2
DA:176,2
DA:186,2
DA:196,2
DA:210,2
BRF:0
BRH:0
LF:13
LH:13
end_of_record
SF:/home/dimitris/my_repos/temp4/ultraplonk_verifier/src/utils.rs
FN:150,_RINvNtCsk9ngD3d3DdK_17ultraplonk_no_std5utils12read_g1_utilNtNtB4_15curvehooks_impl14CurveHooksImplECska6KjoqsFU2_8noir_cli
FN:150,_RINvNtCsk9ngD3d3DdK_17ultraplonk_no_std5utils12read_g1_utilpEB4_
FN:42,_RNvXs0_NtCsk9ngD3d3DdK_17ultraplonk_no_std5utilsINtNtNtNtCs6cBskVegino_6ark_ff6fields6models2fp2FpINtNtBN_18montgomery_backend11MontBackendNtNtNtCscZaYX6Q9SRQ_9ark_bn2546fields2fr8FrConfigKj4_EKB31_ENtB5_6IntoFq7into_fq
FN:77,_RNvXs5_NtCsk9ngD3d3DdK_17ultraplonk_no_std5utilsINtNtNtNtCs6cBskVegino_6ark_ff6fields6models2fp2FpINtNtBN_18montgomery_backend11MontBackendNtNtNtCscZaYX6Q9SRQ_9ark_bn2546fields2fq8FqConfigKj4_EKB31_ENtB5_6IntoFr7into_fr
FN:138,_RNvXsa_NtCsk9ngD3d3DdK_17ultraplonk_no_std5utilsINtNtNtNtCs6cBskVegino_6ark_ff6fields6models2fp2FpINtNtBN_18montgomery_backend11MontBackendNtNtNtCscZaYX6Q9SRQ_9ark_bn2546fields2fr8FrConfigKj4_EKB31_ENtB5_9IntoBytes10into_bytes
FN:144,_RNvXsb_NtCsk9ngD3d3DdK_17ultraplonk_no_std5utilsINtNtNtNtCs6cBskVegino_6ark_ff6fields6models2fp2FpINtNtBN_18montgomery_backend11MontBackendNtNtNtCscZaYX6Q9SRQ_9ark_bn2546fields2fq8FqConfigKj4_EKB31_ENtB5_9IntoBytes10into_bytes
FN:36,_RNvXs_NtCsk9ngD3d3DdK_17ultraplonk_no_std5utilsyNtB4_6IntoFq7into_fq
FN:53,_RNvXs1_NtCsk9ngD3d3DdK_17ultraplonk_no_std5utilsRAhj20_NtB5_6IntoFr7into_fr
FN:59,_RNvXs2_NtCsk9ngD3d3DdK_17ultraplonk_no_std5utilsAhj20_NtB5_6IntoFr7into_fr
FN:71,_RNvXs4_NtCsk9ngD3d3DdK_17ultraplonk_no_std5utilsyNtB5_6IntoFr7into_fr
FN:87,_RNvXs6_NtCsk9ngD3d3DdK_17ultraplonk_no_std5utilsmNtB5_8IntoU2569into_u256
FN:93,_RNvXs7_NtCsk9ngD3d3DdK_17ultraplonk_no_std5utilsRAhj20_NtB5_8IntoU2569into_u256
FN:115,_RNvXs8_NtCsk9ngD3d3DdK_17ultraplonk_no_std5utilsAhj20_NtB5_8IntoU2569into_u256
FN:184,_RNvNtCsk9ngD3d3DdK_17ultraplonk_no_std5utils12read_fq_util
FN:30,_RNvXNtCsk9ngD3d3DdK_17ultraplonk_no_std5utilsINtNtCs6cBskVegino_6ark_ff10biginteger6BigIntKj4_ENtB2_6IntoFq7into_fq
FN:65,_RNvXs3_NtCsk9ngD3d3DdK_17ultraplonk_no_std5utilsINtNtCs6cBskVegino_6ark_ff10biginteger6BigIntKj4_ENtB5_6IntoFr7into_fr
FN:125,_RNvXs9_NtCsk9ngD3d3DdK_17ultraplonk_no_std5utilsINtNtCs6cBskVegino_6ark_ff10biginteger6BigIntKj4_ENtB5_9IntoBytes10into_bytes
FN:36,_RNvXs_NtCs7j5G3H6G69x_17ultraplonk_no_std5utilsyNtB4_6IntoFq7into_fq
FN:42,_RNvXs0_NtCs7j5G3H6G69x_17ultraplonk_no_std5utilsINtNtNtNtCs6cBskVegino_6ark_ff6fields6models2fp2FpINtNtBN_18montgomery_backend11MontBackendNtNtNtCscZaYX6Q9SRQ_9ark_bn2546fields2fr8FrConfigKj4_EKB31_ENtB5_6IntoFq7into_fq
FN:71,_RNvXs4_NtCs7j5G3H6G69x_17ultraplonk_no_std5utilsyNtB5_6IntoFr7into_fr
FN:87,_RNvXs6_NtCs7j5G3H6G69x_17ultraplonk_no_std5utilsmNtB5_8IntoU2569into_u256
FN:115,_RNvXs8_NtCs7j5G3H6G69x_17ultraplonk_no_std5utilsAhj20_NtB5_8IntoU2569into_u256
FN:150,_RINvNtCs7j5G3H6G69x_17ultraplonk_no_std5utils12read_g1_utilNtNtB4_15curvehooks_impl14CurveHooksImplEB4_
FN:53,_RNvXs1_NtCs7j5G3H6G69x_17ultraplonk_no_std5utilsRAhj20_NtB5_6IntoFr7into_fr
FN:59,_RNvXs2_NtCs7j5G3H6G69x_17ultraplonk_no_std5utilsAhj20_NtB5_6IntoFr7into_fr
FN:93,_RNvXs7_NtCs7j5G3H6G69x_17ultraplonk_no_std5utilsRAhj20_NtB5_8IntoU2569into_u256
FN:184,_RNvNtCs7j5G3H6G69x_17ultraplonk_no_std5utils12read_fq_util
FN:30,_RNvXNtCs7j5G3H6G69x_17ultraplonk_no_std5utilsINtNtCs6cBskVegino_6ark_ff10biginteger6BigIntKj4_ENtB2_6IntoFq7into_fq
FN:65,_RNvXs3_NtCs7j5G3H6G69x_17ultraplonk_no_std5utilsINtNtCs6cBskVegino_6ark_ff10biginteger6BigIntKj4_ENtB5_6IntoFr7into_fr
FN:125,_RNvXs9_NtCs7j5G3H6G69x_17ultraplonk_no_std5utilsINtNtCs6cBskVegino_6ark_ff10biginteger6BigIntKj4_ENtB5_9IntoBytes10into_bytes
FN:77,_RNvXs5_NtCs7j5G3H6G69x_17ultraplonk_no_std5utilsINtNtNtNtCs6cBskVegino_6ark_ff6fields6models2fp2FpINtNtBN_18montgomery_backend11MontBackendNtNtNtCscZaYX6Q9SRQ_9ark_bn2546fields2fq8FqConfigKj4_EKB31_ENtB5_6IntoFr7into_fr
FN:138,_RNvXsa_NtCs7j5G3H6G69x_17ultraplonk_no_std5utilsINtNtNtNtCs6cBskVegino_6ark_ff6fields6models2fp2FpINtNtBN_18montgomery_backend11MontBackendNtNtNtCscZaYX6Q9SRQ_9ark_bn2546fields2fr8FrConfigKj4_EKB31_ENtB5_9IntoBytes10into_bytes
FN:144,_RNvXsb_NtCs7j5G3H6G69x_17ultraplonk_no_std5utilsINtNtNtNtCs6cBskVegino_6ark_ff6fields6models2fp2FpINtNtBN_18montgomery_backend11MontBackendNtNtNtCscZaYX6Q9SRQ_9ark_bn2546fields2fq8FqConfigKj4_EKB31_ENtB5_9IntoBytes10into_bytes
FNDA:396,_RINvNtCsk9ngD3d3DdK_17ultraplonk_no_std5utils12read_g1_utilNtNtB4_15curvehooks_impl14CurveHooksImplECska6KjoqsFU2_8noir_cli
FNDA:0,_RINvNtCsk9ngD3d3DdK_17ultraplonk_no_std5utils12read_g1_utilpEB4_
FNDA:0,_RNvXs0_NtCsk9ngD3d3DdK_17ultraplonk_no_std5utilsINtNtNtNtCs6cBskVegino_6ark_ff6fields6models2fp2FpINtNtBN_18montgomery_backend11MontBackendNtNtNtCscZaYX6Q9SRQ_9ark_bn2546fields2fr8FrConfigKj4_EKB31_ENtB5_6IntoFq7into_fq
FNDA:2211,_RNvXs5_NtCsk9ngD3d3DdK_17ultraplonk_no_std5utilsINtNtNtNtCs6cBskVegino_6ark_ff6fields6models2fp2FpINtNtBN_18montgomery_backend11MontBackendNtNtNtCscZaYX6Q9SRQ_9ark_bn2546fields2fq8FqConfigKj4_EKB31_ENtB5_6IntoFr7into_fr
FNDA:11,_RNvXsa_NtCsk9ngD3d3DdK_17ultraplonk_no_std5utilsINtNtNtNtCs6cBskVegino_6ark_ff6fields6models2fp2FpINtNtBN_18montgomery_backend11MontBackendNtNtNtCscZaYX6Q9SRQ_9ark_bn2546fields2fr8FrConfigKj4_EKB31_ENtB5_9IntoBytes10into_bytes
FNDA:737,_RNvXsb_NtCsk9ngD3d3DdK_17ultraplonk_no_std5utilsINtNtNtNtCs6cBskVegino_6ark_ff6fields6models2fp2FpINtNtBN_18montgomery_backend11MontBackendNtNtNtCscZaYX6Q9SRQ_9ark_bn2546fields2fq8FqConfigKj4_EKB31_ENtB5_9IntoBytes10into_bytes
FNDA:0,_RNvXs_NtCsk9ngD3d3DdK_17ultraplonk_no_std5utilsyNtB4_6IntoFq7into_fq
FNDA:396,_RNvXs1_NtCsk9ngD3d3DdK_17ultraplonk_no_std5utilsRAhj20_NtB5_6IntoFr7into_fr
FNDA:396,_RNvXs2_NtCsk9ngD3d3DdK_17ultraplonk_no_std5utilsAhj20_NtB5_6IntoFr7into_fr
FNDA:0,_RNvXs4_NtCsk9ngD3d3DdK_17ultraplonk_no_std5utilsyNtB5_6IntoFr7into_fr
FNDA:0,_RNvXs6_NtCsk9ngD3d3DdK_17ultraplonk_no_std5utilsmNtB5_8IntoU2569into_u256
FNDA:968,_RNvXs7_NtCsk9ngD3d3DdK_17ultraplonk_no_std5utilsRAhj20_NtB5_8IntoU2569into_u256
FNDA:0,_RNvXs8_NtCsk9ngD3d3DdK_17ultraplonk_no_std5utilsAhj20_NtB5_8IntoU2569into_u256
FNDA:1287,_RNvNtCsk9ngD3d3DdK_17ultraplonk_no_std5utils12read_fq_util
FNDA:1287,_RNvXNtCsk9ngD3d3DdK_17ultraplonk_no_std5utilsINtNtCs6cBskVegino_6ark_ff10biginteger6BigIntKj4_ENtB2_6IntoFq7into_fq
FNDA:407,_RNvXs3_NtCsk9ngD3d3DdK_17ultraplonk_no_std5utilsINtNtCs6cBskVegino_6ark_ff10biginteger6BigIntKj4_ENtB5_6IntoFr7into_fr
FNDA:1320,_RNvXs9_NtCsk9ngD3d3DdK_17ultraplonk_no_std5utilsINtNtCs6cBskVegino_6ark_ff10biginteger6BigIntKj4_ENtB5_9IntoBytes10into_bytes
FNDA:0,_RNvXs_NtCs7j5G3H6G69x_17ultraplonk_no_std5utilsyNtB4_6IntoFq7into_fq
FNDA:0,_RNvXs0_NtCs7j5G3H6G69x_17ultraplonk_no_std5utilsINtNtNtNtCs6cBskVegino_6ark_ff6fields6models2fp2FpINtNtBN_18montgomery_backend11MontBackendNtNtNtCscZaYX6Q9SRQ_9ark_bn2546fields2fr8FrConfigKj4_EKB31_ENtB5_6IntoFq7into_fq
FNDA:0,_RNvXs4_NtCs7j5G3H6G69x_17ultraplonk_no_std5utilsyNtB5_6IntoFr7into_fr
FNDA:0,_RNvXs6_NtCs7j5G3H6G69x_17ultraplonk_no_std5utilsmNtB5_8IntoU2569into_u256
FNDA:0,_RNvXs8_NtCs7j5G3H6G69x_17ultraplonk_no_std5utilsAhj20_NtB5_8IntoU2569into_u256
FNDA:103,_RINvNtCs7j5G3H6G69x_17ultraplonk_no_std5utils12read_g1_utilNtNtB4_15curvehooks_impl14CurveHooksImplEB4_
FNDA:41,_RNvXs1_NtCs7j5G3H6G69x_17ultraplonk_no_std5utilsRAhj20_NtB5_6IntoFr7into_fr
FNDA:41,_RNvXs2_NtCs7j5G3H6G69x_17ultraplonk_no_std5utilsAhj20_NtB5_6IntoFr7into_fr
FNDA:464,_RNvXs7_NtCs7j5G3H6G69x_17ultraplonk_no_std5utilsRAhj20_NtB5_8IntoU2569into_u256
FNDA:374,_RNvNtCs7j5G3H6G69x_17ultraplonk_no_std5utils12read_fq_util
FNDA:374,_RNvXNtCs7j5G3H6G69x_17ultraplonk_no_std5utilsINtNtCs6cBskVegino_6ark_ff10biginteger6BigIntKj4_ENtB2_6IntoFq7into_fq
FNDA:43,_RNvXs3_NtCs7j5G3H6G69x_17ultraplonk_no_std5utilsINtNtCs6cBskVegino_6ark_ff10biginteger6BigIntKj4_ENtB5_6IntoFr7into_fr
FNDA:194,_RNvXs9_NtCs7j5G3H6G69x_17ultraplonk_no_std5utilsINtNtCs6cBskVegino_6ark_ff10biginteger6BigIntKj4_ENtB5_9IntoBytes10into_bytes
FNDA:201,_RNvXs5_NtCs7j5G3H6G69x_17ultraplonk_no_std5utilsINtNtNtNtCs6cBskVegino_6ark_ff6fields6models2fp2FpINtNtBN_18montgomery_backend11MontBackendNtNtNtCscZaYX6Q9SRQ_9ark_bn2546fields2fq8FqConfigKj4_EKB31_ENtB5_6IntoFr7into_fr
FNDA:1,_RNvXsa_NtCs7j5G3H6G69x_17ultraplonk_no_std5utilsINtNtNtNtCs6cBskVegino_6ark_ff6fields6models2fp2FpINtNtBN_18montgomery_backend11MontBackendNtNtNtCscZaYX6Q9SRQ_9ark_bn2546fields2fr8FrConfigKj4_EKB31_ENtB5_9IntoBytes10into_bytes
FNDA:89,_RNvXsb_NtCs7j5G3H6G69x_17ultraplonk_no_std5utilsINtNtNtNtCs6cBskVegino_6ark_ff6fields6models2fp2FpINtNtBN_18montgomery_backend11MontBackendNtNtNtCscZaYX6Q9SRQ_9ark_bn2546fields2fq8FqConfigKj4_EKB31_ENtB5_9IntoBytes10into_bytes
FNF:16
FNH:11
DA:30,1661
DA:31,1661
DA:32,1661
DA:36,0
DA:37,0
DA:38,0
DA:42,0
DA:43,0
DA:44,0
DA:45,0
DA:53,437
DA:54,437
DA:55,437
DA:59,437
DA:60,437
DA:61,437
DA:65,450
DA:66,450
DA:67,450
DA:71,0
DA:72,0
DA:73,0
DA:77,2412
DA:78,2412
DA:79,2412
DA:87,0
DA:88,0
DA:89,0
DA:93,1432
DA:94,1432
DA:95,1432
DA:96,1432
DA:97,1432
DA:98,1432
DA:99,1432
DA:102,7160
DA:103,5728
DA:104,5728
DA:105,5728
DA:106,5728
DA:107,5728
DA:108,5728
DA:110,1432
DA:111,1432
DA:115,0
DA:116,0
DA:117,0
DA:125,1514
DA:126,1514
DA:127,6056
DA:128,6056
DA:129,6056
DA:130,6056
DA:131,6056
DA:132,6056
DA:133,1514
DA:134,1514
DA:138,12
DA:139,12
DA:140,12
DA:144,826
DA:145,826
DA:146,826
DA:150,499
DA:151,499
DA:152,0
DA:153,0
DA:154,0
DA:155,0
DA:156,499
DA:157,499
DA:158,499
DA:159,499
DA:160,499
DA:161,499
DA:162,199
DA:163,199
DA:164,300
DA:165,300
DA:166,300
DA:167,300
DA:169,499
DA:170,499
DA:171,499
DA:172,499
DA:173,3
DA:174,496
DA:175,496
DA:176,496
DA:177,496
DA:178,496
DA:179,496
DA:180,496
DA:181,499
DA:184,1661
DA:185,1661
DA:186,0
DA:187,0
DA:188,0
DA:189,0
DA:190,1661
DA:191,1661
DA:192,1661
DA:193,1661
DA:194,6644
DA:195,6644
DA:196,6644
DA:198,1661
DA:199,1661
DA:200,1661
DA:201,1661
BRF:0
BRH:0
LF:111
LH:87
end_of_record